Archive member included because of file (symbol)

/home/tx/workspace/nacl_sdk/pepper_29/toolchain/linux_x86_newlib/bin/../lib/gcc/x86_64-nacl/4.4.3/../../../../x86_64-nacl/lib/../lib32/libppapi_stub.a(plugin_main_irt.o)
                              (main)
/home/tx/workspace/nacl_sdk/pepper_29/toolchain/linux_x86_newlib/bin/../lib/gcc/x86_64-nacl/4.4.3/../../../../x86_64-nacl/lib/../lib32/libppapi_stub.a(ppapi_plugin_main.o)
                              /home/tx/workspace/nacl_sdk/pepper_29/toolchain/linux_x86_newlib/bin/../lib/gcc/x86_64-nacl/4.4.3/../../../../x86_64-nacl/lib/../lib32/libppapi_stub.a(plugin_main_irt.o) (PpapiPluginMain)
/home/tx/workspace/nacl_sdk/pepper_29/toolchain/linux_x86_newlib/bin/../lib/gcc/x86_64-nacl/4.4.3/../../../../x86_64-nacl/lib/../lib32/libppapi_stub.a(ppapi_plugin_start.o)
                              /home/tx/workspace/nacl_sdk/pepper_29/toolchain/linux_x86_newlib/bin/../lib/gcc/x86_64-nacl/4.4.3/../../../../x86_64-nacl/lib/../lib32/libppapi_stub.a(ppapi_plugin_main.o) (PpapiPluginStart)
/home/tx/workspace/nacl_sdk/pepper_29/toolchain/linux_x86_newlib/bin/../lib/gcc/x86_64-nacl/4.4.3/../../../../x86_64-nacl/lib/../lib32/libppapi_stub.a(thread_creator.o)
                              /home/tx/workspace/nacl_sdk/pepper_29/toolchain/linux_x86_newlib/bin/../lib/gcc/x86_64-nacl/4.4.3/../../../../x86_64-nacl/lib/../lib32/libppapi_stub.a(ppapi_plugin_start.o) (__nacl_register_thread_creator)
/home/tx/workspace/nacl_sdk/pepper_29/toolchain/linux_x86_newlib/bin/../lib/gcc/x86_64-nacl/4.4.3/../../../../x86_64-nacl/lib/../lib32/libpthread.a(nc_thread.o)
                              /home/tx/workspace/nacl_sdk/pepper_29/toolchain/linux_x86_newlib/bin/../lib/gcc/x86_64-nacl/4.4.3/../../../../x86_64-nacl/lib/../lib32/libppapi_stub.a(thread_creator.o) (pthread_join)
/home/tx/workspace/nacl_sdk/pepper_29/toolchain/linux_x86_newlib/bin/../lib/gcc/x86_64-nacl/4.4.3/../../../../x86_64-nacl/lib/../lib32/libpthread.a(nc_mutex.o)
                              /home/tx/workspace/nacl_sdk/pepper_29/toolchain/linux_x86_newlib/bin/../lib/gcc/x86_64-nacl/4.4.3/../../../../x86_64-nacl/lib/../lib32/libpthread.a(nc_thread.o) (pthread_mutex_init)
/home/tx/workspace/nacl_sdk/pepper_29/toolchain/linux_x86_newlib/bin/../lib/gcc/x86_64-nacl/4.4.3/../../../../x86_64-nacl/lib/../lib32/libpthread.a(nc_condvar.o)
                              /home/tx/workspace/nacl_sdk/pepper_29/toolchain/linux_x86_newlib/bin/../lib/gcc/x86_64-nacl/4.4.3/../../../../x86_64-nacl/lib/../lib32/libpthread.a(nc_thread.o) (pthread_cond_init)
/home/tx/workspace/nacl_sdk/pepper_29/toolchain/linux_x86_newlib/bin/../lib/gcc/x86_64-nacl/4.4.3/../../../../x86_64-nacl/lib/../lib32/libpthread.a(nc_init_irt.o)
                              /home/tx/workspace/nacl_sdk/pepper_29/toolchain/linux_x86_newlib/bin/../lib/gcc/x86_64-nacl/4.4.3/../../../../x86_64-nacl/lib/../lib32/libpthread.a(nc_thread.o) (__nc_initialize_interfaces)
/home/tx/workspace/nacl_sdk/pepper_29/toolchain/linux_x86_newlib/bin/../lib/gcc/x86_64-nacl/4.4.3/../../../../x86_64-nacl/lib/../lib32/libpthread.a(dynamic_annotations.o)
                              /home/tx/workspace/nacl_sdk/pepper_29/toolchain/linux_x86_newlib/bin/../lib/gcc/x86_64-nacl/4.4.3/../../../../x86_64-nacl/lib/../lib32/libpthread.a(nc_thread.o) (NACL_AnnotateCondVarWait)
/home/tx/workspace/nacl_sdk/pepper_29/toolchain/linux_x86_newlib/bin/../lib/gcc/x86_64-nacl/4.4.3/../../../../x86_64-nacl/lib/../lib32/libpthread.a(futex.o)
                              /home/tx/workspace/nacl_sdk/pepper_29/toolchain/linux_x86_newlib/bin/../lib/gcc/x86_64-nacl/4.4.3/../../../../x86_64-nacl/lib/../lib32/libpthread.a(nc_mutex.o) (__nc_futex_wake)
/home/tx/workspace/nacl_sdk/pepper_29/toolchain/linux_x86_newlib/bin/../lib/gcc/x86_64-nacl/4.4.3/../../../../x86_64-nacl/lib/../lib32/libcrt_common.a(lib_a-assert.o)
                              /home/tx/workspace/nacl_sdk/pepper_29/toolchain/linux_x86_newlib/bin/../lib/gcc/x86_64-nacl/4.4.3/../../../../x86_64-nacl/lib/../lib32/libpthread.a(futex.o) (__assert_func)
/home/tx/workspace/nacl_sdk/pepper_29/toolchain/linux_x86_newlib/bin/../lib/gcc/x86_64-nacl/4.4.3/../../../../x86_64-nacl/lib/../lib32/libcrt_common.a(lib_a-environ.o)
                              /home/tx/workspace/nacl_sdk/pepper_29/toolchain/linux_x86_newlib/bin/../lib/gcc/x86_64-nacl/4.4.3/../../../../x86_64-nacl/lib/../lib32/libppapi_stub.a(ppapi_plugin_start.o) (environ)
/home/tx/workspace/nacl_sdk/pepper_29/toolchain/linux_x86_newlib/bin/../lib/gcc/x86_64-nacl/4.4.3/../../../../x86_64-nacl/lib/../lib32/libcrt_common.a(lib_a-exit.o)
                              (exit)
/home/tx/workspace/nacl_sdk/pepper_29/toolchain/linux_x86_newlib/bin/../lib/gcc/x86_64-nacl/4.4.3/../../../../x86_64-nacl/lib/../lib32/libcrt_common.a(lib_a-fiprintf.o)
                              /home/tx/workspace/nacl_sdk/pepper_29/toolchain/linux_x86_newlib/bin/../lib/gcc/x86_64-nacl/4.4.3/../../../../x86_64-nacl/lib/../lib32/libcrt_common.a(lib_a-assert.o) (fiprintf)
/home/tx/workspace/nacl_sdk/pepper_29/toolchain/linux_x86_newlib/bin/../lib/gcc/x86_64-nacl/4.4.3/../../../../x86_64-nacl/lib/../lib32/libcrt_common.a(lib_a-getenv.o)
                              /home/tx/workspace/nacl_sdk/pepper_29/toolchain/linux_x86_newlib/bin/../lib/gcc/x86_64-nacl/4.4.3/../../../../x86_64-nacl/lib/../lib32/libpthread.a(dynamic_annotations.o) (getenv)
/home/tx/workspace/nacl_sdk/pepper_29/toolchain/linux_x86_newlib/bin/../lib/gcc/x86_64-nacl/4.4.3/../../../../x86_64-nacl/lib/../lib32/libcrt_common.a(lib_a-getenv_r.o)
                              /home/tx/workspace/nacl_sdk/pepper_29/toolchain/linux_x86_newlib/bin/../lib/gcc/x86_64-nacl/4.4.3/../../../../x86_64-nacl/lib/../lib32/libcrt_common.a(lib_a-getenv.o) (_findenv_r)
/home/tx/workspace/nacl_sdk/pepper_29/toolchain/linux_x86_newlib/bin/../lib/gcc/x86_64-nacl/4.4.3/../../../../x86_64-nacl/lib/../lib32/libcrt_common.a(lib_a-impure.o)
                              /home/tx/workspace/nacl_sdk/pepper_29/toolchain/linux_x86_newlib/bin/../lib/gcc/x86_64-nacl/4.4.3/../../../../x86_64-nacl/lib/../lib32/libpthread.a(nc_thread.o) (__newlib_thread_init)
/home/tx/workspace/nacl_sdk/pepper_29/toolchain/linux_x86_newlib/bin/../lib/gcc/x86_64-nacl/4.4.3/../../../../x86_64-nacl/lib/../lib32/libcrt_common.a(lib_a-memcpy.o)
                              newlib/Debug/tmp_x86_32.o (memcpy)
/home/tx/workspace/nacl_sdk/pepper_29/toolchain/linux_x86_newlib/bin/../lib/gcc/x86_64-nacl/4.4.3/../../../../x86_64-nacl/lib/../lib32/libcrt_common.a(lib_a-strcat.o)
                              newlib/Debug/tmp_x86_32.o (strcat)
/home/tx/workspace/nacl_sdk/pepper_29/toolchain/linux_x86_newlib/bin/../lib/gcc/x86_64-nacl/4.4.3/../../../../x86_64-nacl/lib/../lib32/libcrt_common.a(lib_a-strcmp.o)
                              newlib/Debug/tmp_x86_32.o (strcmp)
/home/tx/workspace/nacl_sdk/pepper_29/toolchain/linux_x86_newlib/bin/../lib/gcc/x86_64-nacl/4.4.3/../../../../x86_64-nacl/lib/../lib32/libcrt_common.a(lib_a-strcpy.o)
                              /home/tx/workspace/nacl_sdk/pepper_29/toolchain/linux_x86_newlib/bin/../lib/gcc/x86_64-nacl/4.4.3/../../../../x86_64-nacl/lib/../lib32/libcrt_common.a(lib_a-strcat.o) (strcpy)
/home/tx/workspace/nacl_sdk/pepper_29/toolchain/linux_x86_newlib/bin/../lib/gcc/x86_64-nacl/4.4.3/../../../../x86_64-nacl/lib/../lib32/libcrt_common.a(lib_a-strlen.o)
                              newlib/Debug/tmp_x86_32.o (strlen)
/home/tx/workspace/nacl_sdk/pepper_29/toolchain/linux_x86_newlib/bin/../lib/gcc/x86_64-nacl/4.4.3/../../../../x86_64-nacl/lib/../lib32/libcrt_common.a(lib_a-strncmp.o)
                              /home/tx/workspace/nacl_sdk/pepper_29/toolchain/linux_x86_newlib/bin/../lib/gcc/x86_64-nacl/4.4.3/../../../../x86_64-nacl/lib/../lib32/libcrt_common.a(lib_a-getenv_r.o) (strncmp)
/home/tx/workspace/nacl_sdk/pepper_29/toolchain/linux_x86_newlib/bin/../lib/gcc/x86_64-nacl/4.4.3/../../../../x86_64-nacl/lib/../lib32/libcrt_common.a(lib_a-vfiprintf.o)
                              /home/tx/workspace/nacl_sdk/pepper_29/toolchain/linux_x86_newlib/bin/../lib/gcc/x86_64-nacl/4.4.3/../../../../x86_64-nacl/lib/../lib32/libcrt_common.a(lib_a-fiprintf.o) (_vfiprintf_r)
/home/tx/workspace/nacl_sdk/pepper_29/toolchain/linux_x86_newlib/bin/../lib/gcc/x86_64-nacl/4.4.3/../../../../x86_64-nacl/lib/../lib32/libcrt_common.a(lib_a-wcrtomb.o)
                              /home/tx/workspace/nacl_sdk/pepper_29/toolchain/linux_x86_newlib/bin/../lib/gcc/x86_64-nacl/4.4.3/../../../../x86_64-nacl/lib/../lib32/libcrt_common.a(lib_a-vfiprintf.o) (_wcrtomb_r)
/home/tx/workspace/nacl_sdk/pepper_29/toolchain/linux_x86_newlib/bin/../lib/gcc/x86_64-nacl/4.4.3/../../../../x86_64-nacl/lib/../lib32/libcrt_common.a(lib_a-wcsrtombs.o)
                              /home/tx/workspace/nacl_sdk/pepper_29/toolchain/linux_x86_newlib/bin/../lib/gcc/x86_64-nacl/4.4.3/../../../../x86_64-nacl/lib/../lib32/libcrt_common.a(lib_a-vfiprintf.o) (_wcsrtombs_r)
/home/tx/workspace/nacl_sdk/pepper_29/toolchain/linux_x86_newlib/bin/../lib/gcc/x86_64-nacl/4.4.3/../../../../x86_64-nacl/lib/../lib32/libcrt_common.a(lib_a-wctomb_r.o)
                              /home/tx/workspace/nacl_sdk/pepper_29/toolchain/linux_x86_newlib/bin/../lib/gcc/x86_64-nacl/4.4.3/../../../../x86_64-nacl/lib/../lib32/libcrt_common.a(lib_a-wcrtomb.o) (__wctomb)
/home/tx/workspace/nacl_sdk/pepper_29/toolchain/linux_x86_newlib/bin/../lib/gcc/x86_64-nacl/4.4.3/../../../../x86_64-nacl/lib/../lib32/libcrt_common.a(lib_a-wsetup.o)
                              /home/tx/workspace/nacl_sdk/pepper_29/toolchain/linux_x86_newlib/bin/../lib/gcc/x86_64-nacl/4.4.3/../../../../x86_64-nacl/lib/../lib32/libcrt_common.a(lib_a-vfiprintf.o) (__swsetup_r)
/home/tx/workspace/nacl_sdk/pepper_29/toolchain/linux_x86_newlib/bin/../lib/gcc/x86_64-nacl/4.4.3/../../../../x86_64-nacl/lib/../lib32/libcrt_common.a(lib_a-abort.o)
                              /home/tx/workspace/nacl_sdk/pepper_29/toolchain/linux_x86_newlib/bin/../lib/gcc/x86_64-nacl/4.4.3/../../../../x86_64-nacl/lib/../lib32/libcrt_common.a(lib_a-assert.o) (abort)
/home/tx/workspace/nacl_sdk/pepper_29/toolchain/linux_x86_newlib/bin/../lib/gcc/x86_64-nacl/4.4.3/../../../../x86_64-nacl/lib/../lib32/libcrt_common.a(lib_a-__call_atexit.o)
                              /home/tx/workspace/nacl_sdk/pepper_29/toolchain/linux_x86_newlib/bin/../lib/gcc/x86_64-nacl/4.4.3/../../../../x86_64-nacl/lib/../lib32/libcrt_common.a(lib_a-exit.o) (__call_exitprocs)
/home/tx/workspace/nacl_sdk/pepper_29/toolchain/linux_x86_newlib/bin/../lib/gcc/x86_64-nacl/4.4.3/../../../../x86_64-nacl/lib/../lib32/libcrt_common.a(lib_a-envlock.o)
                              /home/tx/workspace/nacl_sdk/pepper_29/toolchain/linux_x86_newlib/bin/../lib/gcc/x86_64-nacl/4.4.3/../../../../x86_64-nacl/lib/../lib32/libcrt_common.a(lib_a-getenv_r.o) (__env_unlock)
/home/tx/workspace/nacl_sdk/pepper_29/toolchain/linux_x86_newlib/bin/../lib/gcc/x86_64-nacl/4.4.3/../../../../x86_64-nacl/lib/../lib32/libcrt_common.a(lib_a-fflush.o)
                              /home/tx/workspace/nacl_sdk/pepper_29/toolchain/linux_x86_newlib/bin/../lib/gcc/x86_64-nacl/4.4.3/../../../../x86_64-nacl/lib/../lib32/libcrt_common.a(lib_a-vfiprintf.o) (_fflush_r)
/home/tx/workspace/nacl_sdk/pepper_29/toolchain/linux_x86_newlib/bin/../lib/gcc/x86_64-nacl/4.4.3/../../../../x86_64-nacl/lib/../lib32/libcrt_common.a(lib_a-findfp.o)
                              /home/tx/workspace/nacl_sdk/pepper_29/toolchain/linux_x86_newlib/bin/../lib/gcc/x86_64-nacl/4.4.3/../../../../x86_64-nacl/lib/../lib32/libcrt_common.a(lib_a-vfiprintf.o) (__sinit)
/home/tx/workspace/nacl_sdk/pepper_29/toolchain/linux_x86_newlib/bin/../lib/gcc/x86_64-nacl/4.4.3/../../../../x86_64-nacl/lib/../lib32/libcrt_common.a(lib_a-fputwc.o)
                              /home/tx/workspace/nacl_sdk/pepper_29/toolchain/linux_x86_newlib/bin/../lib/gcc/x86_64-nacl/4.4.3/../../../../x86_64-nacl/lib/../lib32/libcrt_common.a(lib_a-vfiprintf.o) (_fputwc_r)
/home/tx/workspace/nacl_sdk/pepper_29/toolchain/linux_x86_newlib/bin/../lib/gcc/x86_64-nacl/4.4.3/../../../../x86_64-nacl/lib/../lib32/libcrt_common.a(lib_a-fvwrite.o)
                              /home/tx/workspace/nacl_sdk/pepper_29/toolchain/linux_x86_newlib/bin/../lib/gcc/x86_64-nacl/4.4.3/../../../../x86_64-nacl/lib/../lib32/libcrt_common.a(lib_a-vfiprintf.o) (__sfvwrite_r)
/home/tx/workspace/nacl_sdk/pepper_29/toolchain/linux_x86_newlib/bin/../lib/gcc/x86_64-nacl/4.4.3/../../../../x86_64-nacl/lib/../lib32/libcrt_common.a(lib_a-fwalk.o)
                              /home/tx/workspace/nacl_sdk/pepper_29/toolchain/linux_x86_newlib/bin/../lib/gcc/x86_64-nacl/4.4.3/../../../../x86_64-nacl/lib/../lib32/libcrt_common.a(lib_a-fflush.o) (_fwalk_reent)
/home/tx/workspace/nacl_sdk/pepper_29/toolchain/linux_x86_newlib/bin/../lib/gcc/x86_64-nacl/4.4.3/../../../../x86_64-nacl/lib/../lib32/libcrt_common.a(lib_a-locale.o)
                              /home/tx/workspace/nacl_sdk/pepper_29/toolchain/linux_x86_newlib/bin/../lib/gcc/x86_64-nacl/4.4.3/../../../../x86_64-nacl/lib/../lib32/libcrt_common.a(lib_a-vfiprintf.o) (__locale_charset)
/home/tx/workspace/nacl_sdk/pepper_29/toolchain/linux_x86_newlib/bin/../lib/gcc/x86_64-nacl/4.4.3/../../../../x86_64-nacl/lib/../lib32/libcrt_common.a(lib_a-makebuf.o)
                              /home/tx/workspace/nacl_sdk/pepper_29/toolchain/linux_x86_newlib/bin/../lib/gcc/x86_64-nacl/4.4.3/../../../../x86_64-nacl/lib/../lib32/libcrt_common.a(lib_a-wsetup.o) (__smakebuf_r)
/home/tx/workspace/nacl_sdk/pepper_29/toolchain/linux_x86_newlib/bin/../lib/gcc/x86_64-nacl/4.4.3/../../../../x86_64-nacl/lib/../lib32/libcrt_common.a(lib_a-mbtowc_r.o)
                              /home/tx/workspace/nacl_sdk/pepper_29/toolchain/linux_x86_newlib/bin/../lib/gcc/x86_64-nacl/4.4.3/../../../../x86_64-nacl/lib/../lib32/libcrt_common.a(lib_a-locale.o) (__ascii_mbtowc)
/home/tx/workspace/nacl_sdk/pepper_29/toolchain/linux_x86_newlib/bin/../lib/gcc/x86_64-nacl/4.4.3/../../../../x86_64-nacl/lib/../lib32/libcrt_common.a(lib_a-memchr.o)
                              /home/tx/workspace/nacl_sdk/pepper_29/toolchain/linux_x86_newlib/bin/../lib/gcc/x86_64-nacl/4.4.3/../../../../x86_64-nacl/lib/../lib32/libcrt_common.a(lib_a-vfiprintf.o) (memchr)
/home/tx/workspace/nacl_sdk/pepper_29/toolchain/linux_x86_newlib/bin/../lib/gcc/x86_64-nacl/4.4.3/../../../../x86_64-nacl/lib/../lib32/libcrt_common.a(lib_a-memmove.o)
                              /home/tx/workspace/nacl_sdk/pepper_29/toolchain/linux_x86_newlib/bin/../lib/gcc/x86_64-nacl/4.4.3/../../../../x86_64-nacl/lib/../lib32/libcrt_common.a(lib_a-fvwrite.o) (memmove)
/home/tx/workspace/nacl_sdk/pepper_29/toolchain/linux_x86_newlib/bin/../lib/gcc/x86_64-nacl/4.4.3/../../../../x86_64-nacl/lib/../lib32/libcrt_common.a(lib_a-memset.o)
                              /home/tx/workspace/nacl_sdk/pepper_29/toolchain/linux_x86_newlib/bin/../lib/gcc/x86_64-nacl/4.4.3/../../../../x86_64-nacl/lib/../lib32/libcrt_common.a(lib_a-vfiprintf.o) (memset)
/home/tx/workspace/nacl_sdk/pepper_29/toolchain/linux_x86_newlib/bin/../lib/gcc/x86_64-nacl/4.4.3/../../../../x86_64-nacl/lib/../lib32/libcrt_common.a(lib_a-stdio.o)
                              /home/tx/workspace/nacl_sdk/pepper_29/toolchain/linux_x86_newlib/bin/../lib/gcc/x86_64-nacl/4.4.3/../../../../x86_64-nacl/lib/../lib32/libcrt_common.a(lib_a-findfp.o) (__sclose)
/home/tx/workspace/nacl_sdk/pepper_29/toolchain/linux_x86_newlib/bin/../lib/gcc/x86_64-nacl/4.4.3/../../../../x86_64-nacl/lib/../lib32/libcrt_common.a(lib_a-strcasecmp.o)
                              /home/tx/workspace/nacl_sdk/pepper_29/toolchain/linux_x86_newlib/bin/../lib/gcc/x86_64-nacl/4.4.3/../../../../x86_64-nacl/lib/../lib32/libcrt_common.a(lib_a-locale.o) (strcasecmp)
/home/tx/workspace/nacl_sdk/pepper_29/toolchain/linux_x86_newlib/bin/../lib/gcc/x86_64-nacl/4.4.3/../../../../x86_64-nacl/lib/../lib32/libcrt_common.a(lib_a-strchr.o)
                              /home/tx/workspace/nacl_sdk/pepper_29/toolchain/linux_x86_newlib/bin/../lib/gcc/x86_64-nacl/4.4.3/../../../../x86_64-nacl/lib/../lib32/libcrt_common.a(lib_a-locale.o) (strchr)
/home/tx/workspace/nacl_sdk/pepper_29/toolchain/linux_x86_newlib/bin/../lib/gcc/x86_64-nacl/4.4.3/../../../../x86_64-nacl/lib/../lib32/libcrt_common.a(lib_a-strlcpy.o)
                              /home/tx/workspace/nacl_sdk/pepper_29/toolchain/linux_x86_newlib/bin/../lib/gcc/x86_64-nacl/4.4.3/../../../../x86_64-nacl/lib/../lib32/libcrt_common.a(lib_a-locale.o) (strlcpy)
/home/tx/workspace/nacl_sdk/pepper_29/toolchain/linux_x86_newlib/bin/../lib/gcc/x86_64-nacl/4.4.3/../../../../x86_64-nacl/lib/../lib32/libcrt_common.a(lib_a-strncasecmp.o)
                              /home/tx/workspace/nacl_sdk/pepper_29/toolchain/linux_x86_newlib/bin/../lib/gcc/x86_64-nacl/4.4.3/../../../../x86_64-nacl/lib/../lib32/libcrt_common.a(lib_a-locale.o) (strncasecmp)
/home/tx/workspace/nacl_sdk/pepper_29/toolchain/linux_x86_newlib/bin/../lib/gcc/x86_64-nacl/4.4.3/../../../../x86_64-nacl/lib/../lib32/libcrt_common.a(lib_a-strncpy.o)
                              /home/tx/workspace/nacl_sdk/pepper_29/toolchain/linux_x86_newlib/bin/../lib/gcc/x86_64-nacl/4.4.3/../../../../x86_64-nacl/lib/../lib32/libcrt_common.a(lib_a-vfiprintf.o) (strncpy)
/home/tx/workspace/nacl_sdk/pepper_29/toolchain/linux_x86_newlib/bin/../lib/gcc/x86_64-nacl/4.4.3/../../../../x86_64-nacl/lib/../lib32/libcrt_common.a(lib_a-strtol.o)
                              /home/tx/workspace/nacl_sdk/pepper_29/toolchain/linux_x86_newlib/bin/../lib/gcc/x86_64-nacl/4.4.3/../../../../x86_64-nacl/lib/../lib32/libcrt_common.a(lib_a-locale.o) (_strtol_r)
/home/tx/workspace/nacl_sdk/pepper_29/toolchain/linux_x86_newlib/bin/../lib/gcc/x86_64-nacl/4.4.3/../../../../x86_64-nacl/lib/../lib32/libcrt_common.a(lib_a-wbuf.o)
                              /home/tx/workspace/nacl_sdk/pepper_29/toolchain/linux_x86_newlib/bin/../lib/gcc/x86_64-nacl/4.4.3/../../../../x86_64-nacl/lib/../lib32/libcrt_common.a(lib_a-fputwc.o) (__swbuf_r)
/home/tx/workspace/nacl_sdk/pepper_29/toolchain/linux_x86_newlib/bin/../lib/gcc/x86_64-nacl/4.4.3/../../../../x86_64-nacl/lib/../lib32/libcrt_common.a(lib_a-wcsnrtombs.o)
                              /home/tx/workspace/nacl_sdk/pepper_29/toolchain/linux_x86_newlib/bin/../lib/gcc/x86_64-nacl/4.4.3/../../../../x86_64-nacl/lib/../lib32/libcrt_common.a(lib_a-wcsrtombs.o) (_wcsnrtombs_r)
/home/tx/workspace/nacl_sdk/pepper_29/toolchain/linux_x86_newlib/bin/../lib/gcc/x86_64-nacl/4.4.3/../../../../x86_64-nacl/lib/../lib32/libcrt_common.a(lib_a-writer.o)
                              /home/tx/workspace/nacl_sdk/pepper_29/toolchain/linux_x86_newlib/bin/../lib/gcc/x86_64-nacl/4.4.3/../../../../x86_64-nacl/lib/../lib32/libcrt_common.a(lib_a-stdio.o) (_write_r)
/home/tx/workspace/nacl_sdk/pepper_29/toolchain/linux_x86_newlib/bin/../lib/gcc/x86_64-nacl/4.4.3/../../../../x86_64-nacl/lib/../lib32/libcrt_common.a(lib_a-__atexit.o)
                              /home/tx/workspace/nacl_sdk/pepper_29/toolchain/linux_x86_newlib/bin/../lib/gcc/x86_64-nacl/4.4.3/../../../../x86_64-nacl/lib/../lib32/libcrt_common.a(lib_a-__call_atexit.o) (__atexit_lock)
/home/tx/workspace/nacl_sdk/pepper_29/toolchain/linux_x86_newlib/bin/../lib/gcc/x86_64-nacl/4.4.3/../../../../x86_64-nacl/lib/../lib32/libcrt_common.a(lib_a-closer.o)
                              /home/tx/workspace/nacl_sdk/pepper_29/toolchain/linux_x86_newlib/bin/../lib/gcc/x86_64-nacl/4.4.3/../../../../x86_64-nacl/lib/../lib32/libcrt_common.a(lib_a-stdio.o) (_close_r)
/home/tx/workspace/nacl_sdk/pepper_29/toolchain/linux_x86_newlib/bin/../lib/gcc/x86_64-nacl/4.4.3/../../../../x86_64-nacl/lib/../lib32/libcrt_common.a(lib_a-ctype_.o)
                              /home/tx/workspace/nacl_sdk/pepper_29/toolchain/linux_x86_newlib/bin/../lib/gcc/x86_64-nacl/4.4.3/../../../../x86_64-nacl/lib/../lib32/libcrt_common.a(lib_a-locale.o) (__set_ctype)
/home/tx/workspace/nacl_sdk/pepper_29/toolchain/linux_x86_newlib/bin/../lib/gcc/x86_64-nacl/4.4.3/../../../../x86_64-nacl/lib/../lib32/libcrt_common.a(lib_a-fclose.o)
                              /home/tx/workspace/nacl_sdk/pepper_29/toolchain/linux_x86_newlib/bin/../lib/gcc/x86_64-nacl/4.4.3/../../../../x86_64-nacl/lib/../lib32/libcrt_common.a(lib_a-findfp.o) (fclose)
/home/tx/workspace/nacl_sdk/pepper_29/toolchain/linux_x86_newlib/bin/../lib/gcc/x86_64-nacl/4.4.3/../../../../x86_64-nacl/lib/../lib32/libcrt_common.a(lib_a-fstatr.o)
                              /home/tx/workspace/nacl_sdk/pepper_29/toolchain/linux_x86_newlib/bin/../lib/gcc/x86_64-nacl/4.4.3/../../../../x86_64-nacl/lib/../lib32/libcrt_common.a(lib_a-makebuf.o) (_fstat_r)
/home/tx/workspace/nacl_sdk/pepper_29/toolchain/linux_x86_newlib/bin/../lib/gcc/x86_64-nacl/4.4.3/../../../../x86_64-nacl/lib/../lib32/libcrt_common.a(lib_a-isattyr.o)
                              /home/tx/workspace/nacl_sdk/pepper_29/toolchain/linux_x86_newlib/bin/../lib/gcc/x86_64-nacl/4.4.3/../../../../x86_64-nacl/lib/../lib32/libcrt_common.a(lib_a-makebuf.o) (_isatty_r)
/home/tx/workspace/nacl_sdk/pepper_29/toolchain/linux_x86_newlib/bin/../lib/gcc/x86_64-nacl/4.4.3/../../../../x86_64-nacl/lib/../lib32/libcrt_common.a(lib_a-lseekr.o)
                              /home/tx/workspace/nacl_sdk/pepper_29/toolchain/linux_x86_newlib/bin/../lib/gcc/x86_64-nacl/4.4.3/../../../../x86_64-nacl/lib/../lib32/libcrt_common.a(lib_a-stdio.o) (_lseek_r)
/home/tx/workspace/nacl_sdk/pepper_29/toolchain/linux_x86_newlib/bin/../lib/gcc/x86_64-nacl/4.4.3/../../../../x86_64-nacl/lib/../lib32/libcrt_common.a(lib_a-readr.o)
                              /home/tx/workspace/nacl_sdk/pepper_29/toolchain/linux_x86_newlib/bin/../lib/gcc/x86_64-nacl/4.4.3/../../../../x86_64-nacl/lib/../lib32/libcrt_common.a(lib_a-stdio.o) (_read_r)
/home/tx/workspace/nacl_sdk/pepper_29/toolchain/linux_x86_newlib/bin/../lib/gcc/x86_64-nacl/4.4.3/../../../../x86_64-nacl/lib/../lib32/libcrt_common.a(lib_a-reent.o)
                              /home/tx/workspace/nacl_sdk/pepper_29/toolchain/linux_x86_newlib/bin/../lib/gcc/x86_64-nacl/4.4.3/../../../../x86_64-nacl/lib/../lib32/libcrt_common.a(lib_a-writer.o) (errno)
/home/tx/workspace/nacl_sdk/pepper_29/toolchain/linux_x86_newlib/bin/../lib/gcc/x86_64-nacl/4.4.3/../../../../x86_64-nacl/lib/../lib32/libcrt_common.a(lib_a-isatty.o)
                              /home/tx/workspace/nacl_sdk/pepper_29/toolchain/linux_x86_newlib/bin/../lib/gcc/x86_64-nacl/4.4.3/../../../../x86_64-nacl/lib/../lib32/libcrt_common.a(lib_a-isattyr.o) (isatty)
/home/tx/workspace/nacl_sdk/pepper_29/toolchain/linux_x86_newlib/bin/../lib/gcc/x86_64-nacl/4.4.3/../../../../x86_64-nacl/lib/../lib32/libcrt_common.a(lib_a-_isatty.o)
                              /home/tx/workspace/nacl_sdk/pepper_29/toolchain/linux_x86_newlib/bin/../lib/gcc/x86_64-nacl/4.4.3/../../../../x86_64-nacl/lib/../lib32/libcrt_common.a(lib_a-isatty.o) (_isatty)
/home/tx/workspace/nacl_sdk/pepper_29/toolchain/linux_x86_newlib/bin/../lib/gcc/x86_64-nacl/4.4.3/../../../../x86_64-nacl/lib/../lib32/libcrt_common.a(lib_a-errno.o)
                              /home/tx/workspace/nacl_sdk/pepper_29/toolchain/linux_x86_newlib/bin/../lib/gcc/x86_64-nacl/4.4.3/../../../../x86_64-nacl/lib/../lib32/libcrt_common.a(lib_a-_isatty.o) (__errno)
/home/tx/workspace/nacl_sdk/pepper_29/toolchain/linux_x86_newlib/bin/../lib/gcc/x86_64-nacl/4.4.3/../../../../x86_64-nacl/lib/../lib32/libnacl.a(nacl_irt.o)
                              /home/tx/workspace/nacl_sdk/pepper_29/toolchain/linux_x86_newlib/bin/../lib/gcc/x86_64-nacl/4.4.3/../../../../x86_64-nacl/lib/../lib32/libpthread.a(nc_init_irt.o) (__libnacl_mandatory_irt_query)
/home/tx/workspace/nacl_sdk/pepper_29/toolchain/linux_x86_newlib/bin/../lib/gcc/x86_64-nacl/4.4.3/../../../../x86_64-nacl/lib/../lib32/libnacl.a(close.o)
                              /home/tx/workspace/nacl_sdk/pepper_29/toolchain/linux_x86_newlib/bin/../lib/gcc/x86_64-nacl/4.4.3/../../../../x86_64-nacl/lib/../lib32/libcrt_common.a(lib_a-closer.o) (close)
/home/tx/workspace/nacl_sdk/pepper_29/toolchain/linux_x86_newlib/bin/../lib/gcc/x86_64-nacl/4.4.3/../../../../x86_64-nacl/lib/../lib32/libnacl.a(_exit.o)
                              (_exit)
/home/tx/workspace/nacl_sdk/pepper_29/toolchain/linux_x86_newlib/bin/../lib/gcc/x86_64-nacl/4.4.3/../../../../x86_64-nacl/lib/../lib32/libnacl.a(fstat.o)
                              /home/tx/workspace/nacl_sdk/pepper_29/toolchain/linux_x86_newlib/bin/../lib/gcc/x86_64-nacl/4.4.3/../../../../x86_64-nacl/lib/../lib32/libcrt_common.a(lib_a-fstatr.o) (fstat)
/home/tx/workspace/nacl_sdk/pepper_29/toolchain/linux_x86_newlib/bin/../lib/gcc/x86_64-nacl/4.4.3/../../../../x86_64-nacl/lib/../lib32/libnacl.a(lseek.o)
                              /home/tx/workspace/nacl_sdk/pepper_29/toolchain/linux_x86_newlib/bin/../lib/gcc/x86_64-nacl/4.4.3/../../../../x86_64-nacl/lib/../lib32/libcrt_common.a(lib_a-lseekr.o) (lseek)
/home/tx/workspace/nacl_sdk/pepper_29/toolchain/linux_x86_newlib/bin/../lib/gcc/x86_64-nacl/4.4.3/../../../../x86_64-nacl/lib/../lib32/libnacl.a(malloc.o)
                              /home/tx/workspace/nacl_sdk/pepper_29/toolchain/linux_x86_newlib/bin/../lib/gcc/x86_64-nacl/4.4.3/../../../../x86_64-nacl/lib/../lib32/libpthread.a(nc_thread.o) (free)
/home/tx/workspace/nacl_sdk/pepper_29/toolchain/linux_x86_newlib/bin/../lib/gcc/x86_64-nacl/4.4.3/../../../../x86_64-nacl/lib/../lib32/libnacl.a(mmap.o)
                              /home/tx/workspace/nacl_sdk/pepper_29/toolchain/linux_x86_newlib/bin/../lib/gcc/x86_64-nacl/4.4.3/../../../../x86_64-nacl/lib/../lib32/libnacl.a(malloc.o) (mmap)
/home/tx/workspace/nacl_sdk/pepper_29/toolchain/linux_x86_newlib/bin/../lib/gcc/x86_64-nacl/4.4.3/../../../../x86_64-nacl/lib/../lib32/libnacl.a(munmap.o)
                              /home/tx/workspace/nacl_sdk/pepper_29/toolchain/linux_x86_newlib/bin/../lib/gcc/x86_64-nacl/4.4.3/../../../../x86_64-nacl/lib/../lib32/libnacl.a(malloc.o) (munmap)
/home/tx/workspace/nacl_sdk/pepper_29/toolchain/linux_x86_newlib/bin/../lib/gcc/x86_64-nacl/4.4.3/../../../../x86_64-nacl/lib/../lib32/libnacl.a(nacl_read_tp.o)
                              /home/tx/workspace/nacl_sdk/pepper_29/toolchain/linux_x86_newlib/bin/../lib/gcc/x86_64-nacl/4.4.3/../../../../x86_64-nacl/lib/../lib32/libpthread.a(nc_thread.o) (__nacl_read_tp)
/home/tx/workspace/nacl_sdk/pepper_29/toolchain/linux_x86_newlib/bin/../lib/gcc/x86_64-nacl/4.4.3/../../../../x86_64-nacl/lib/../lib32/libnacl.a(read.o)
                              /home/tx/workspace/nacl_sdk/pepper_29/toolchain/linux_x86_newlib/bin/../lib/gcc/x86_64-nacl/4.4.3/../../../../x86_64-nacl/lib/../lib32/libcrt_common.a(lib_a-readr.o) (read)
/home/tx/workspace/nacl_sdk/pepper_29/toolchain/linux_x86_newlib/bin/../lib/gcc/x86_64-nacl/4.4.3/../../../../x86_64-nacl/lib/../lib32/libnacl.a(pthread_initialize_minimal.o)
                              /home/tx/workspace/nacl_sdk/pepper_29/toolchain/linux_x86_newlib/bin/../lib/gcc/x86_64-nacl/4.4.3/../../../../x86_64-nacl/lib/../lib32/libpthread.a(nc_thread.o) (__pthread_initialize_minimal)
/home/tx/workspace/nacl_sdk/pepper_29/toolchain/linux_x86_newlib/bin/../lib/gcc/x86_64-nacl/4.4.3/../../../../x86_64-nacl/lib/../lib32/libnacl.a(sbrk.o)
                              /home/tx/workspace/nacl_sdk/pepper_29/toolchain/linux_x86_newlib/bin/../lib/gcc/x86_64-nacl/4.4.3/../../../../x86_64-nacl/lib/../lib32/libnacl.a(malloc.o) (sbrk)
/home/tx/workspace/nacl_sdk/pepper_29/toolchain/linux_x86_newlib/bin/../lib/gcc/x86_64-nacl/4.4.3/../../../../x86_64-nacl/lib/../lib32/libnacl.a(sched_yield.o)
                              /home/tx/workspace/nacl_sdk/pepper_29/toolchain/linux_x86_newlib/bin/../lib/gcc/x86_64-nacl/4.4.3/../../../../x86_64-nacl/lib/../lib32/libnacl.a(malloc.o) (sched_yield)
/home/tx/workspace/nacl_sdk/pepper_29/toolchain/linux_x86_newlib/bin/../lib/gcc/x86_64-nacl/4.4.3/../../../../x86_64-nacl/lib/../lib32/libnacl.a(start.o)
                              (_start)
/home/tx/workspace/nacl_sdk/pepper_29/toolchain/linux_x86_newlib/bin/../lib/gcc/x86_64-nacl/4.4.3/../../../../x86_64-nacl/lib/../lib32/libnacl.a(sysconf.o)
                              /home/tx/workspace/nacl_sdk/pepper_29/toolchain/linux_x86_newlib/bin/../lib/gcc/x86_64-nacl/4.4.3/../../../../x86_64-nacl/lib/../lib32/libnacl.a(malloc.o) (sysconf)
/home/tx/workspace/nacl_sdk/pepper_29/toolchain/linux_x86_newlib/bin/../lib/gcc/x86_64-nacl/4.4.3/../../../../x86_64-nacl/lib/../lib32/libnacl.a(tls.o)
                              /home/tx/workspace/nacl_sdk/pepper_29/toolchain/linux_x86_newlib/bin/../lib/gcc/x86_64-nacl/4.4.3/../../../../x86_64-nacl/lib/../lib32/libpthread.a(nc_thread.o) (__nacl_tls_combined_size)
/home/tx/workspace/nacl_sdk/pepper_29/toolchain/linux_x86_newlib/bin/../lib/gcc/x86_64-nacl/4.4.3/../../../../x86_64-nacl/lib/../lib32/libnacl.a(write.o)
                              /home/tx/workspace/nacl_sdk/pepper_29/toolchain/linux_x86_newlib/bin/../lib/gcc/x86_64-nacl/4.4.3/../../../../x86_64-nacl/lib/../lib32/libppapi_stub.a(ppapi_plugin_start.o) (write)
/home/tx/workspace/nacl_sdk/pepper_29/toolchain/linux_x86_newlib/bin/../lib/gcc/x86_64-nacl/4.4.3/../../../../x86_64-nacl/lib/../lib32/libnacl.a(nacl_tls_init.o)
                              /home/tx/workspace/nacl_sdk/pepper_29/toolchain/linux_x86_newlib/bin/../lib/gcc/x86_64-nacl/4.4.3/../../../../x86_64-nacl/lib/../lib32/libnacl.a(pthread_initialize_minimal.o) (nacl_tls_init)
/home/tx/workspace/nacl_sdk/pepper_29/toolchain/linux_x86_newlib/bin/../lib/gcc/x86_64-nacl/4.4.3/../../../../x86_64-nacl/lib/../lib32/libcrt_common.a(lib_a-atexit.o)
                              /home/tx/workspace/nacl_sdk/pepper_29/toolchain/linux_x86_newlib/bin/../lib/gcc/x86_64-nacl/4.4.3/../../../../x86_64-nacl/lib/../lib32/libnacl.a(start.o) (atexit)
/home/tx/workspace/nacl_sdk/pepper_29/toolchain/linux_x86_newlib/bin/../lib/gcc/x86_64-nacl/4.4.3/../../../../x86_64-nacl/lib/../lib32/libcrt_common.a(lib_a-fini.o)
                              /home/tx/workspace/nacl_sdk/pepper_29/toolchain/linux_x86_newlib/bin/../lib/gcc/x86_64-nacl/4.4.3/../../../../x86_64-nacl/lib/../lib32/libnacl.a(start.o) (__libc_fini_array)
/home/tx/workspace/nacl_sdk/pepper_29/toolchain/linux_x86_newlib/bin/../lib/gcc/x86_64-nacl/4.4.3/../../../../x86_64-nacl/lib/../lib32/libcrt_common.a(lib_a-fprintf.o)
                              /home/tx/workspace/nacl_sdk/pepper_29/toolchain/linux_x86_newlib/bin/../lib/gcc/x86_64-nacl/4.4.3/../../../../x86_64-nacl/lib/../lib32/libnacl.a(malloc.o) (fprintf)
/home/tx/workspace/nacl_sdk/pepper_29/toolchain/linux_x86_newlib/bin/../lib/gcc/x86_64-nacl/4.4.3/../../../../x86_64-nacl/lib/../lib32/libcrt_common.a(lib_a-init.o)
                              /home/tx/workspace/nacl_sdk/pepper_29/toolchain/linux_x86_newlib/bin/../lib/gcc/x86_64-nacl/4.4.3/../../../../x86_64-nacl/lib/../lib32/libnacl.a(start.o) (__libc_init_array)
/home/tx/workspace/nacl_sdk/pepper_29/toolchain/linux_x86_newlib/bin/../lib/gcc/x86_64-nacl/4.4.3/../../../../x86_64-nacl/lib/../lib32/libcrt_common.a(lib_a-vfprintf.o)
                              /home/tx/workspace/nacl_sdk/pepper_29/toolchain/linux_x86_newlib/bin/../lib/gcc/x86_64-nacl/4.4.3/../../../../x86_64-nacl/lib/../lib32/libcrt_common.a(lib_a-fprintf.o) (_vfprintf_r)
/home/tx/workspace/nacl_sdk/pepper_29/toolchain/linux_x86_newlib/bin/../lib/gcc/x86_64-nacl/4.4.3/../../../../x86_64-nacl/lib/../lib32/libcrt_common.a(lib_a-dtoa.o)
                              /home/tx/workspace/nacl_sdk/pepper_29/toolchain/linux_x86_newlib/bin/../lib/gcc/x86_64-nacl/4.4.3/../../../../x86_64-nacl/lib/../lib32/libcrt_common.a(lib_a-vfprintf.o) (_dtoa_r)
/home/tx/workspace/nacl_sdk/pepper_29/toolchain/linux_x86_newlib/bin/../lib/gcc/x86_64-nacl/4.4.3/../../../../x86_64-nacl/lib/../lib32/libcrt_common.a(lib_a-mprec.o)
                              /home/tx/workspace/nacl_sdk/pepper_29/toolchain/linux_x86_newlib/bin/../lib/gcc/x86_64-nacl/4.4.3/../../../../x86_64-nacl/lib/../lib32/libcrt_common.a(lib_a-dtoa.o) (_Bfree)
/home/tx/workspace/nacl_sdk/pepper_29/toolchain/linux_x86_newlib/bin/../lib/gcc/x86_64-nacl/4.4.3/../../../../x86_64-nacl/lib/../lib32/libcrt_common.a(lib_a-s_fpclassify.o)
                              /home/tx/workspace/nacl_sdk/pepper_29/toolchain/linux_x86_newlib/bin/../lib/gcc/x86_64-nacl/4.4.3/../../../../x86_64-nacl/lib/../lib32/libcrt_common.a(lib_a-vfprintf.o) (__fpclassifyd)
/home/tx/workspace/nacl_sdk/pepper_29/toolchain/linux_x86_newlib/bin/../lib/gcc/x86_64-nacl/4.4.3/../../../../x86_64-nacl/lib/../lib32/libcrt_common.a(lib_a-s_frexp.o)
                              /home/tx/workspace/nacl_sdk/pepper_29/toolchain/linux_x86_newlib/bin/../lib/gcc/x86_64-nacl/4.4.3/../../../../x86_64-nacl/lib/../lib32/libcrt_common.a(lib_a-vfprintf.o) (frexp)
/home/tx/workspace/nacl_sdk/pepper_29/toolchain/linux_x86_newlib/bin/../lib/gcc/x86_64-nacl/4.4.3/32/libgcc.a(_udivdi3.o)
                              /home/tx/workspace/nacl_sdk/pepper_29/toolchain/linux_x86_newlib/bin/../lib/gcc/x86_64-nacl/4.4.3/../../../../x86_64-nacl/lib/../lib32/libcrt_common.a(lib_a-vfiprintf.o) (__udivdi3)
/home/tx/workspace/nacl_sdk/pepper_29/toolchain/linux_x86_newlib/bin/../lib/gcc/x86_64-nacl/4.4.3/32/libgcc.a(_umoddi3.o)
                              /home/tx/workspace/nacl_sdk/pepper_29/toolchain/linux_x86_newlib/bin/../lib/gcc/x86_64-nacl/4.4.3/../../../../x86_64-nacl/lib/../lib32/libcrt_common.a(lib_a-vfiprintf.o) (__umoddi3)

Allocating common symbols
Common symbol       size              file

__nacl_irt_query    0x4               /home/tx/workspace/nacl_sdk/pepper_29/toolchain/linux_x86_newlib/bin/../lib/gcc/x86_64-nacl/4.4.3/../../../../x86_64-nacl/lib/../lib32/libnacl.a(nacl_irt.o)
__libnacl_irt_filename
                    0x8               /home/tx/workspace/nacl_sdk/pepper_29/toolchain/linux_x86_newlib/bin/../lib/gcc/x86_64-nacl/4.4.3/../../../../x86_64-nacl/lib/../lib32/libnacl.a(nacl_irt.o)
__nc_thread_initialized
                    0x4               /home/tx/workspace/nacl_sdk/pepper_29/toolchain/linux_x86_newlib/bin/../lib/gcc/x86_64-nacl/4.4.3/../../../../x86_64-nacl/lib/../lib32/libpthread.a(nc_thread.o)
__libnacl_irt_dyncode
                    0xc               /home/tx/workspace/nacl_sdk/pepper_29/toolchain/linux_x86_newlib/bin/../lib/gcc/x86_64-nacl/4.4.3/../../../../x86_64-nacl/lib/../lib32/libnacl.a(nacl_irt.o)
__libnacl_irt_blockhook
                    0x4               /home/tx/workspace/nacl_sdk/pepper_29/toolchain/linux_x86_newlib/bin/../lib/gcc/x86_64-nacl/4.4.3/../../../../x86_64-nacl/lib/../lib32/libnacl.a(nacl_irt.o)
errno               0x4               /home/tx/workspace/nacl_sdk/pepper_29/toolchain/linux_x86_newlib/bin/../lib/gcc/x86_64-nacl/4.4.3/../../../../x86_64-nacl/lib/../lib32/libcrt_common.a(lib_a-reent.o)
__libnacl_irt_clock
                    0x8               /home/tx/workspace/nacl_sdk/pepper_29/toolchain/linux_x86_newlib/bin/../lib/gcc/x86_64-nacl/4.4.3/../../../../x86_64-nacl/lib/../lib32/libnacl.a(nacl_irt.o)
__nc_thread_management_lock
                    0x14              /home/tx/workspace/nacl_sdk/pepper_29/toolchain/linux_x86_newlib/bin/../lib/gcc/x86_64-nacl/4.4.3/../../../../x86_64-nacl/lib/../lib32/libpthread.a(nc_thread.o)
__nc_memory_block_counter
                    0x8               /home/tx/workspace/nacl_sdk/pepper_29/toolchain/linux_x86_newlib/bin/../lib/gcc/x86_64-nacl/4.4.3/../../../../x86_64-nacl/lib/../lib32/libpthread.a(nc_thread.o)
__nacl_initial_thread_stack_end
                    0x4               /home/tx/workspace/nacl_sdk/pepper_29/toolchain/linux_x86_newlib/bin/../lib/gcc/x86_64-nacl/4.4.3/../../../../x86_64-nacl/lib/../lib32/libnacl.a(start.o)
__libnacl_irt_memory
                    0x10              /home/tx/workspace/nacl_sdk/pepper_29/toolchain/linux_x86_newlib/bin/../lib/gcc/x86_64-nacl/4.4.3/../../../../x86_64-nacl/lib/../lib32/libnacl.a(nacl_irt.o)
__nc_irt_mutex      0x14              /home/tx/workspace/nacl_sdk/pepper_29/toolchain/linux_x86_newlib/bin/../lib/gcc/x86_64-nacl/4.4.3/../../../../x86_64-nacl/lib/../lib32/libpthread.a(nc_init_irt.o)
__nc_initial_thread_id
                    0x4               /home/tx/workspace/nacl_sdk/pepper_29/toolchain/linux_x86_newlib/bin/../lib/gcc/x86_64-nacl/4.4.3/../../../../x86_64-nacl/lib/../lib32/libpthread.a(nc_thread.o)
__libnacl_irt_fdio  0x20              /home/tx/workspace/nacl_sdk/pepper_29/toolchain/linux_x86_newlib/bin/../lib/gcc/x86_64-nacl/4.4.3/../../../../x86_64-nacl/lib/../lib32/libnacl.a(nacl_irt.o)
__nc_irt_sem        0x10              /home/tx/workspace/nacl_sdk/pepper_29/toolchain/linux_x86_newlib/bin/../lib/gcc/x86_64-nacl/4.4.3/../../../../x86_64-nacl/lib/../lib32/libpthread.a(nc_init_irt.o)
__nc_irt_cond       0x18              /home/tx/workspace/nacl_sdk/pepper_29/toolchain/linux_x86_newlib/bin/../lib/gcc/x86_64-nacl/4.4.3/../../../../x86_64-nacl/lib/../lib32/libpthread.a(nc_init_irt.o)
__libnacl_irt_basic
                    0x18              /home/tx/workspace/nacl_sdk/pepper_29/toolchain/linux_x86_newlib/bin/../lib/gcc/x86_64-nacl/4.4.3/../../../../x86_64-nacl/lib/../lib32/libnacl.a(nacl_irt.o)
__nc_thread_memory_blocks
                    0x10              /home/tx/workspace/nacl_sdk/pepper_29/toolchain/linux_x86_newlib/bin/../lib/gcc/x86_64-nacl/4.4.3/../../../../x86_64-nacl/lib/../lib32/libpthread.a(nc_thread.o)
__libnacl_irt_tls   0x8               /home/tx/workspace/nacl_sdk/pepper_29/toolchain/linux_x86_newlib/bin/../lib/gcc/x86_64-nacl/4.4.3/../../../../x86_64-nacl/lib/../lib32/libnacl.a(nacl_irt.o)
__libnacl_irt_dev_getpid
                    0x4               /home/tx/workspace/nacl_sdk/pepper_29/toolchain/linux_x86_newlib/bin/../lib/gcc/x86_64-nacl/4.4.3/../../../../x86_64-nacl/lib/../lib32/libnacl.a(nacl_irt.o)

Discarded input sections

 .note.GNU-stack
                0x0000000000000000        0x0 /home/tx/workspace/nacl_sdk/pepper_29/toolchain/linux_x86_newlib/bin/../lib/gcc/x86_64-nacl/4.4.3/32/crtbegin.o
 .note.GNU-stack
                0x0000000000000000        0x0 newlib/Debug/tmp_x86_32.o
 .note.GNU-stack
                0x0000000000000000        0x0 /home/tx/workspace/nacl_sdk/pepper_29/toolchain/linux_x86_newlib/bin/../lib/gcc/x86_64-nacl/4.4.3/../../../../x86_64-nacl/lib/../lib32/libppapi_stub.a(plugin_main_irt.o)
 .note.GNU-stack
                0x0000000000000000        0x0 /home/tx/workspace/nacl_sdk/pepper_29/toolchain/linux_x86_newlib/bin/../lib/gcc/x86_64-nacl/4.4.3/../../../../x86_64-nacl/lib/../lib32/libppapi_stub.a(ppapi_plugin_main.o)
 .note.GNU-stack
                0x0000000000000000        0x0 /home/tx/workspace/nacl_sdk/pepper_29/toolchain/linux_x86_newlib/bin/../lib/gcc/x86_64-nacl/4.4.3/../../../../x86_64-nacl/lib/../lib32/libppapi_stub.a(ppapi_plugin_start.o)
 .note.GNU-stack
                0x0000000000000000        0x0 /home/tx/workspace/nacl_sdk/pepper_29/toolchain/linux_x86_newlib/bin/../lib/gcc/x86_64-nacl/4.4.3/../../../../x86_64-nacl/lib/../lib32/libppapi_stub.a(thread_creator.o)
 .note.GNU-stack
                0x0000000000000000        0x0 /home/tx/workspace/nacl_sdk/pepper_29/toolchain/linux_x86_newlib/bin/../lib/gcc/x86_64-nacl/4.4.3/../../../../x86_64-nacl/lib/../lib32/libpthread.a(nc_thread.o)
 .note.GNU-stack
                0x0000000000000000        0x0 /home/tx/workspace/nacl_sdk/pepper_29/toolchain/linux_x86_newlib/bin/../lib/gcc/x86_64-nacl/4.4.3/../../../../x86_64-nacl/lib/../lib32/libpthread.a(nc_mutex.o)
 .note.GNU-stack
                0x0000000000000000        0x0 /home/tx/workspace/nacl_sdk/pepper_29/toolchain/linux_x86_newlib/bin/../lib/gcc/x86_64-nacl/4.4.3/../../../../x86_64-nacl/lib/../lib32/libpthread.a(nc_condvar.o)
 .note.GNU-stack
                0x0000000000000000        0x0 /home/tx/workspace/nacl_sdk/pepper_29/toolchain/linux_x86_newlib/bin/../lib/gcc/x86_64-nacl/4.4.3/../../../../x86_64-nacl/lib/../lib32/libpthread.a(nc_init_irt.o)
 .note.GNU-stack
                0x0000000000000000        0x0 /home/tx/workspace/nacl_sdk/pepper_29/toolchain/linux_x86_newlib/bin/../lib/gcc/x86_64-nacl/4.4.3/../../../../x86_64-nacl/lib/../lib32/libpthread.a(dynamic_annotations.o)
 .note.GNU-stack
                0x0000000000000000        0x0 /home/tx/workspace/nacl_sdk/pepper_29/toolchain/linux_x86_newlib/bin/../lib/gcc/x86_64-nacl/4.4.3/../../../../x86_64-nacl/lib/../lib32/libpthread.a(futex.o)
 .note.GNU-stack
                0x0000000000000000        0x0 /home/tx/workspace/nacl_sdk/pepper_29/toolchain/linux_x86_newlib/bin/../lib/gcc/x86_64-nacl/4.4.3/../../../../x86_64-nacl/lib/../lib32/libcrt_common.a(lib_a-assert.o)
 .note.GNU-stack
                0x0000000000000000        0x0 /home/tx/workspace/nacl_sdk/pepper_29/toolchain/linux_x86_newlib/bin/../lib/gcc/x86_64-nacl/4.4.3/../../../../x86_64-nacl/lib/../lib32/libcrt_common.a(lib_a-environ.o)
 .note.GNU-stack
                0x0000000000000000        0x0 /home/tx/workspace/nacl_sdk/pepper_29/toolchain/linux_x86_newlib/bin/../lib/gcc/x86_64-nacl/4.4.3/../../../../x86_64-nacl/lib/../lib32/libcrt_common.a(lib_a-exit.o)
 .note.GNU-stack
                0x0000000000000000        0x0 /home/tx/workspace/nacl_sdk/pepper_29/toolchain/linux_x86_newlib/bin/../lib/gcc/x86_64-nacl/4.4.3/../../../../x86_64-nacl/lib/../lib32/libcrt_common.a(lib_a-fiprintf.o)
 .note.GNU-stack
                0x0000000000000000        0x0 /home/tx/workspace/nacl_sdk/pepper_29/toolchain/linux_x86_newlib/bin/../lib/gcc/x86_64-nacl/4.4.3/../../../../x86_64-nacl/lib/../lib32/libcrt_common.a(lib_a-getenv.o)
 .note.GNU-stack
                0x0000000000000000        0x0 /home/tx/workspace/nacl_sdk/pepper_29/toolchain/linux_x86_newlib/bin/../lib/gcc/x86_64-nacl/4.4.3/../../../../x86_64-nacl/lib/../lib32/libcrt_common.a(lib_a-getenv_r.o)
 .note.GNU-stack
                0x0000000000000000        0x0 /home/tx/workspace/nacl_sdk/pepper_29/toolchain/linux_x86_newlib/bin/../lib/gcc/x86_64-nacl/4.4.3/../../../../x86_64-nacl/lib/../lib32/libcrt_common.a(lib_a-impure.o)
 .note.GNU-stack
                0x0000000000000000        0x0 /home/tx/workspace/nacl_sdk/pepper_29/toolchain/linux_x86_newlib/bin/../lib/gcc/x86_64-nacl/4.4.3/../../../../x86_64-nacl/lib/../lib32/libcrt_common.a(lib_a-strcat.o)
 .note.GNU-stack
                0x0000000000000000        0x0 /home/tx/workspace/nacl_sdk/pepper_29/toolchain/linux_x86_newlib/bin/../lib/gcc/x86_64-nacl/4.4.3/../../../../x86_64-nacl/lib/../lib32/libcrt_common.a(lib_a-strcmp.o)
 .note.GNU-stack
                0x0000000000000000        0x0 /home/tx/workspace/nacl_sdk/pepper_29/toolchain/linux_x86_newlib/bin/../lib/gcc/x86_64-nacl/4.4.3/../../../../x86_64-nacl/lib/../lib32/libcrt_common.a(lib_a-strcpy.o)
 .note.GNU-stack
                0x0000000000000000        0x0 /home/tx/workspace/nacl_sdk/pepper_29/toolchain/linux_x86_newlib/bin/../lib/gcc/x86_64-nacl/4.4.3/../../../../x86_64-nacl/lib/../lib32/libcrt_common.a(lib_a-strncmp.o)
 .note.GNU-stack
                0x0000000000000000        0x0 /home/tx/workspace/nacl_sdk/pepper_29/toolchain/linux_x86_newlib/bin/../lib/gcc/x86_64-nacl/4.4.3/../../../../x86_64-nacl/lib/../lib32/libcrt_common.a(lib_a-vfiprintf.o)
 .note.GNU-stack
                0x0000000000000000        0x0 /home/tx/workspace/nacl_sdk/pepper_29/toolchain/linux_x86_newlib/bin/../lib/gcc/x86_64-nacl/4.4.3/../../../../x86_64-nacl/lib/../lib32/libcrt_common.a(lib_a-wcrtomb.o)
 .note.GNU-stack
                0x0000000000000000        0x0 /home/tx/workspace/nacl_sdk/pepper_29/toolchain/linux_x86_newlib/bin/../lib/gcc/x86_64-nacl/4.4.3/../../../../x86_64-nacl/lib/../lib32/libcrt_common.a(lib_a-wcsrtombs.o)
 .note.GNU-stack
                0x0000000000000000        0x0 /home/tx/workspace/nacl_sdk/pepper_29/toolchain/linux_x86_newlib/bin/../lib/gcc/x86_64-nacl/4.4.3/../../../../x86_64-nacl/lib/../lib32/libcrt_common.a(lib_a-wctomb_r.o)
 .note.GNU-stack
                0x0000000000000000        0x0 /home/tx/workspace/nacl_sdk/pepper_29/toolchain/linux_x86_newlib/bin/../lib/gcc/x86_64-nacl/4.4.3/../../../../x86_64-nacl/lib/../lib32/libcrt_common.a(lib_a-wsetup.o)
 .note.GNU-stack
                0x0000000000000000        0x0 /home/tx/workspace/nacl_sdk/pepper_29/toolchain/linux_x86_newlib/bin/../lib/gcc/x86_64-nacl/4.4.3/../../../../x86_64-nacl/lib/../lib32/libcrt_common.a(lib_a-abort.o)
 .note.GNU-stack
                0x0000000000000000        0x0 /home/tx/workspace/nacl_sdk/pepper_29/toolchain/linux_x86_newlib/bin/../lib/gcc/x86_64-nacl/4.4.3/../../../../x86_64-nacl/lib/../lib32/libcrt_common.a(lib_a-__call_atexit.o)
 .note.GNU-stack
                0x0000000000000000        0x0 /home/tx/workspace/nacl_sdk/pepper_29/toolchain/linux_x86_newlib/bin/../lib/gcc/x86_64-nacl/4.4.3/../../../../x86_64-nacl/lib/../lib32/libcrt_common.a(lib_a-envlock.o)
 .note.GNU-stack
                0x0000000000000000        0x0 /home/tx/workspace/nacl_sdk/pepper_29/toolchain/linux_x86_newlib/bin/../lib/gcc/x86_64-nacl/4.4.3/../../../../x86_64-nacl/lib/../lib32/libcrt_common.a(lib_a-fflush.o)
 .note.GNU-stack
                0x0000000000000000        0x0 /home/tx/workspace/nacl_sdk/pepper_29/toolchain/linux_x86_newlib/bin/../lib/gcc/x86_64-nacl/4.4.3/../../../../x86_64-nacl/lib/../lib32/libcrt_common.a(lib_a-findfp.o)
 .note.GNU-stack
                0x0000000000000000        0x0 /home/tx/workspace/nacl_sdk/pepper_29/toolchain/linux_x86_newlib/bin/../lib/gcc/x86_64-nacl/4.4.3/../../../../x86_64-nacl/lib/../lib32/libcrt_common.a(lib_a-fputwc.o)
 .note.GNU-stack
                0x0000000000000000        0x0 /home/tx/workspace/nacl_sdk/pepper_29/toolchain/linux_x86_newlib/bin/../lib/gcc/x86_64-nacl/4.4.3/../../../../x86_64-nacl/lib/../lib32/libcrt_common.a(lib_a-fvwrite.o)
 .note.GNU-stack
                0x0000000000000000        0x0 /home/tx/workspace/nacl_sdk/pepper_29/toolchain/linux_x86_newlib/bin/../lib/gcc/x86_64-nacl/4.4.3/../../../../x86_64-nacl/lib/../lib32/libcrt_common.a(lib_a-fwalk.o)
 .note.GNU-stack
                0x0000000000000000        0x0 /home/tx/workspace/nacl_sdk/pepper_29/toolchain/linux_x86_newlib/bin/../lib/gcc/x86_64-nacl/4.4.3/../../../../x86_64-nacl/lib/../lib32/libcrt_common.a(lib_a-locale.o)
 .note.GNU-stack
                0x0000000000000000        0x0 /home/tx/workspace/nacl_sdk/pepper_29/toolchain/linux_x86_newlib/bin/../lib/gcc/x86_64-nacl/4.4.3/../../../../x86_64-nacl/lib/../lib32/libcrt_common.a(lib_a-makebuf.o)
 .note.GNU-stack
                0x0000000000000000        0x0 /home/tx/workspace/nacl_sdk/pepper_29/toolchain/linux_x86_newlib/bin/../lib/gcc/x86_64-nacl/4.4.3/../../../../x86_64-nacl/lib/../lib32/libcrt_common.a(lib_a-mbtowc_r.o)
 .note.GNU-stack
                0x0000000000000000        0x0 /home/tx/workspace/nacl_sdk/pepper_29/toolchain/linux_x86_newlib/bin/../lib/gcc/x86_64-nacl/4.4.3/../../../../x86_64-nacl/lib/../lib32/libcrt_common.a(lib_a-stdio.o)
 .note.GNU-stack
                0x0000000000000000        0x0 /home/tx/workspace/nacl_sdk/pepper_29/toolchain/linux_x86_newlib/bin/../lib/gcc/x86_64-nacl/4.4.3/../../../../x86_64-nacl/lib/../lib32/libcrt_common.a(lib_a-strcasecmp.o)
 .note.GNU-stack
                0x0000000000000000        0x0 /home/tx/workspace/nacl_sdk/pepper_29/toolchain/linux_x86_newlib/bin/../lib/gcc/x86_64-nacl/4.4.3/../../../../x86_64-nacl/lib/../lib32/libcrt_common.a(lib_a-strlcpy.o)
 .note.GNU-stack
                0x0000000000000000        0x0 /home/tx/workspace/nacl_sdk/pepper_29/toolchain/linux_x86_newlib/bin/../lib/gcc/x86_64-nacl/4.4.3/../../../../x86_64-nacl/lib/../lib32/libcrt_common.a(lib_a-strncasecmp.o)
 .note.GNU-stack
                0x0000000000000000        0x0 /home/tx/workspace/nacl_sdk/pepper_29/toolchain/linux_x86_newlib/bin/../lib/gcc/x86_64-nacl/4.4.3/../../../../x86_64-nacl/lib/../lib32/libcrt_common.a(lib_a-strncpy.o)
 .note.GNU-stack
                0x0000000000000000        0x0 /home/tx/workspace/nacl_sdk/pepper_29/toolchain/linux_x86_newlib/bin/../lib/gcc/x86_64-nacl/4.4.3/../../../../x86_64-nacl/lib/../lib32/libcrt_common.a(lib_a-strtol.o)
 .note.GNU-stack
                0x0000000000000000        0x0 /home/tx/workspace/nacl_sdk/pepper_29/toolchain/linux_x86_newlib/bin/../lib/gcc/x86_64-nacl/4.4.3/../../../../x86_64-nacl/lib/../lib32/libcrt_common.a(lib_a-wbuf.o)
 .note.GNU-stack
                0x0000000000000000        0x0 /home/tx/workspace/nacl_sdk/pepper_29/toolchain/linux_x86_newlib/bin/../lib/gcc/x86_64-nacl/4.4.3/../../../../x86_64-nacl/lib/../lib32/libcrt_common.a(lib_a-wcsnrtombs.o)
 .note.GNU-stack
                0x0000000000000000        0x0 /home/tx/workspace/nacl_sdk/pepper_29/toolchain/linux_x86_newlib/bin/../lib/gcc/x86_64-nacl/4.4.3/../../../../x86_64-nacl/lib/../lib32/libcrt_common.a(lib_a-writer.o)
 .note.GNU-stack
                0x0000000000000000        0x0 /home/tx/workspace/nacl_sdk/pepper_29/toolchain/linux_x86_newlib/bin/../lib/gcc/x86_64-nacl/4.4.3/../../../../x86_64-nacl/lib/../lib32/libcrt_common.a(lib_a-__atexit.o)
 .note.GNU-stack
                0x0000000000000000        0x0 /home/tx/workspace/nacl_sdk/pepper_29/toolchain/linux_x86_newlib/bin/../lib/gcc/x86_64-nacl/4.4.3/../../../../x86_64-nacl/lib/../lib32/libcrt_common.a(lib_a-closer.o)
 .note.GNU-stack
                0x0000000000000000        0x0 /home/tx/workspace/nacl_sdk/pepper_29/toolchain/linux_x86_newlib/bin/../lib/gcc/x86_64-nacl/4.4.3/../../../../x86_64-nacl/lib/../lib32/libcrt_common.a(lib_a-ctype_.o)
 .note.GNU-stack
                0x0000000000000000        0x0 /home/tx/workspace/nacl_sdk/pepper_29/toolchain/linux_x86_newlib/bin/../lib/gcc/x86_64-nacl/4.4.3/../../../../x86_64-nacl/lib/../lib32/libcrt_common.a(lib_a-fclose.o)
 .note.GNU-stack
                0x0000000000000000        0x0 /home/tx/workspace/nacl_sdk/pepper_29/toolchain/linux_x86_newlib/bin/../lib/gcc/x86_64-nacl/4.4.3/../../../../x86_64-nacl/lib/../lib32/libcrt_common.a(lib_a-fstatr.o)
 .note.GNU-stack
                0x0000000000000000        0x0 /home/tx/workspace/nacl_sdk/pepper_29/toolchain/linux_x86_newlib/bin/../lib/gcc/x86_64-nacl/4.4.3/../../../../x86_64-nacl/lib/../lib32/libcrt_common.a(lib_a-isattyr.o)
 .note.GNU-stack
                0x0000000000000000        0x0 /home/tx/workspace/nacl_sdk/pepper_29/toolchain/linux_x86_newlib/bin/../lib/gcc/x86_64-nacl/4.4.3/../../../../x86_64-nacl/lib/../lib32/libcrt_common.a(lib_a-lseekr.o)
 .note.GNU-stack
                0x0000000000000000        0x0 /home/tx/workspace/nacl_sdk/pepper_29/toolchain/linux_x86_newlib/bin/../lib/gcc/x86_64-nacl/4.4.3/../../../../x86_64-nacl/lib/../lib32/libcrt_common.a(lib_a-readr.o)
 .note.GNU-stack
                0x0000000000000000        0x0 /home/tx/workspace/nacl_sdk/pepper_29/toolchain/linux_x86_newlib/bin/../lib/gcc/x86_64-nacl/4.4.3/../../../../x86_64-nacl/lib/../lib32/libcrt_common.a(lib_a-reent.o)
 .note.GNU-stack
                0x0000000000000000        0x0 /home/tx/workspace/nacl_sdk/pepper_29/toolchain/linux_x86_newlib/bin/../lib/gcc/x86_64-nacl/4.4.3/../../../../x86_64-nacl/lib/../lib32/libcrt_common.a(lib_a-isatty.o)
 .note.GNU-stack
                0x0000000000000000        0x0 /home/tx/workspace/nacl_sdk/pepper_29/toolchain/linux_x86_newlib/bin/../lib/gcc/x86_64-nacl/4.4.3/../../../../x86_64-nacl/lib/../lib32/libcrt_common.a(lib_a-_isatty.o)
 .note.GNU-stack
                0x0000000000000000        0x0 /home/tx/workspace/nacl_sdk/pepper_29/toolchain/linux_x86_newlib/bin/../lib/gcc/x86_64-nacl/4.4.3/../../../../x86_64-nacl/lib/../lib32/libcrt_common.a(lib_a-errno.o)
 .note.GNU-stack
                0x0000000000000000        0x0 /home/tx/workspace/nacl_sdk/pepper_29/toolchain/linux_x86_newlib/bin/../lib/gcc/x86_64-nacl/4.4.3/../../../../x86_64-nacl/lib/../lib32/libnacl.a(nacl_irt.o)
 .note.GNU-stack
                0x0000000000000000        0x0 /home/tx/workspace/nacl_sdk/pepper_29/toolchain/linux_x86_newlib/bin/../lib/gcc/x86_64-nacl/4.4.3/../../../../x86_64-nacl/lib/../lib32/libnacl.a(close.o)
 .note.GNU-stack
                0x0000000000000000        0x0 /home/tx/workspace/nacl_sdk/pepper_29/toolchain/linux_x86_newlib/bin/../lib/gcc/x86_64-nacl/4.4.3/../../../../x86_64-nacl/lib/../lib32/libnacl.a(_exit.o)
 .note.GNU-stack
                0x0000000000000000        0x0 /home/tx/workspace/nacl_sdk/pepper_29/toolchain/linux_x86_newlib/bin/../lib/gcc/x86_64-nacl/4.4.3/../../../../x86_64-nacl/lib/../lib32/libnacl.a(fstat.o)
 .note.GNU-stack
                0x0000000000000000        0x0 /home/tx/workspace/nacl_sdk/pepper_29/toolchain/linux_x86_newlib/bin/../lib/gcc/x86_64-nacl/4.4.3/../../../../x86_64-nacl/lib/../lib32/libnacl.a(lseek.o)
 .note.GNU-stack
                0x0000000000000000        0x0 /home/tx/workspace/nacl_sdk/pepper_29/toolchain/linux_x86_newlib/bin/../lib/gcc/x86_64-nacl/4.4.3/../../../../x86_64-nacl/lib/../lib32/libnacl.a(malloc.o)
 .note.GNU-stack
                0x0000000000000000        0x0 /home/tx/workspace/nacl_sdk/pepper_29/toolchain/linux_x86_newlib/bin/../lib/gcc/x86_64-nacl/4.4.3/../../../../x86_64-nacl/lib/../lib32/libnacl.a(mmap.o)
 .note.GNU-stack
                0x0000000000000000        0x0 /home/tx/workspace/nacl_sdk/pepper_29/toolchain/linux_x86_newlib/bin/../lib/gcc/x86_64-nacl/4.4.3/../../../../x86_64-nacl/lib/../lib32/libnacl.a(munmap.o)
 .note.GNU-stack
                0x0000000000000000        0x0 /home/tx/workspace/nacl_sdk/pepper_29/toolchain/linux_x86_newlib/bin/../lib/gcc/x86_64-nacl/4.4.3/../../../../x86_64-nacl/lib/../lib32/libnacl.a(nacl_read_tp.o)
 .note.GNU-stack
                0x0000000000000000        0x0 /home/tx/workspace/nacl_sdk/pepper_29/toolchain/linux_x86_newlib/bin/../lib/gcc/x86_64-nacl/4.4.3/../../../../x86_64-nacl/lib/../lib32/libnacl.a(read.o)
 .note.GNU-stack
                0x0000000000000000        0x0 /home/tx/workspace/nacl_sdk/pepper_29/toolchain/linux_x86_newlib/bin/../lib/gcc/x86_64-nacl/4.4.3/../../../../x86_64-nacl/lib/../lib32/libnacl.a(pthread_initialize_minimal.o)
 .note.GNU-stack
                0x0000000000000000        0x0 /home/tx/workspace/nacl_sdk/pepper_29/toolchain/linux_x86_newlib/bin/../lib/gcc/x86_64-nacl/4.4.3/../../../../x86_64-nacl/lib/../lib32/libnacl.a(sbrk.o)
 .note.GNU-stack
                0x0000000000000000        0x0 /home/tx/workspace/nacl_sdk/pepper_29/toolchain/linux_x86_newlib/bin/../lib/gcc/x86_64-nacl/4.4.3/../../../../x86_64-nacl/lib/../lib32/libnacl.a(sched_yield.o)
 .note.GNU-stack
                0x0000000000000000        0x0 /home/tx/workspace/nacl_sdk/pepper_29/toolchain/linux_x86_newlib/bin/../lib/gcc/x86_64-nacl/4.4.3/../../../../x86_64-nacl/lib/../lib32/libnacl.a(start.o)
 .note.GNU-stack
                0x0000000000000000        0x0 /home/tx/workspace/nacl_sdk/pepper_29/toolchain/linux_x86_newlib/bin/../lib/gcc/x86_64-nacl/4.4.3/../../../../x86_64-nacl/lib/../lib32/libnacl.a(sysconf.o)
 .note.GNU-stack
                0x0000000000000000        0x0 /home/tx/workspace/nacl_sdk/pepper_29/toolchain/linux_x86_newlib/bin/../lib/gcc/x86_64-nacl/4.4.3/../../../../x86_64-nacl/lib/../lib32/libnacl.a(tls.o)
 .note.GNU-stack
                0x0000000000000000        0x0 /home/tx/workspace/nacl_sdk/pepper_29/toolchain/linux_x86_newlib/bin/../lib/gcc/x86_64-nacl/4.4.3/../../../../x86_64-nacl/lib/../lib32/libnacl.a(write.o)
 .note.GNU-stack
                0x0000000000000000        0x0 /home/tx/workspace/nacl_sdk/pepper_29/toolchain/linux_x86_newlib/bin/../lib/gcc/x86_64-nacl/4.4.3/../../../../x86_64-nacl/lib/../lib32/libnacl.a(nacl_tls_init.o)
 .note.GNU-stack
                0x0000000000000000        0x0 /home/tx/workspace/nacl_sdk/pepper_29/toolchain/linux_x86_newlib/bin/../lib/gcc/x86_64-nacl/4.4.3/../../../../x86_64-nacl/lib/../lib32/libcrt_common.a(lib_a-atexit.o)
 .note.GNU-stack
                0x0000000000000000        0x0 /home/tx/workspace/nacl_sdk/pepper_29/toolchain/linux_x86_newlib/bin/../lib/gcc/x86_64-nacl/4.4.3/../../../../x86_64-nacl/lib/../lib32/libcrt_common.a(lib_a-fini.o)
 .note.GNU-stack
                0x0000000000000000        0x0 /home/tx/workspace/nacl_sdk/pepper_29/toolchain/linux_x86_newlib/bin/../lib/gcc/x86_64-nacl/4.4.3/../../../../x86_64-nacl/lib/../lib32/libcrt_common.a(lib_a-fprintf.o)
 .note.GNU-stack
                0x0000000000000000        0x0 /home/tx/workspace/nacl_sdk/pepper_29/toolchain/linux_x86_newlib/bin/../lib/gcc/x86_64-nacl/4.4.3/../../../../x86_64-nacl/lib/../lib32/libcrt_common.a(lib_a-init.o)
 .note.GNU-stack
                0x0000000000000000        0x0 /home/tx/workspace/nacl_sdk/pepper_29/toolchain/linux_x86_newlib/bin/../lib/gcc/x86_64-nacl/4.4.3/../../../../x86_64-nacl/lib/../lib32/libcrt_common.a(lib_a-vfprintf.o)
 .note.GNU-stack
                0x0000000000000000        0x0 /home/tx/workspace/nacl_sdk/pepper_29/toolchain/linux_x86_newlib/bin/../lib/gcc/x86_64-nacl/4.4.3/../../../../x86_64-nacl/lib/../lib32/libcrt_common.a(lib_a-dtoa.o)
 .note.GNU-stack
                0x0000000000000000        0x0 /home/tx/workspace/nacl_sdk/pepper_29/toolchain/linux_x86_newlib/bin/../lib/gcc/x86_64-nacl/4.4.3/../../../../x86_64-nacl/lib/../lib32/libcrt_common.a(lib_a-mprec.o)
 .note.GNU-stack
                0x0000000000000000        0x0 /home/tx/workspace/nacl_sdk/pepper_29/toolchain/linux_x86_newlib/bin/../lib/gcc/x86_64-nacl/4.4.3/../../../../x86_64-nacl/lib/../lib32/libcrt_common.a(lib_a-s_fpclassify.o)
 .note.GNU-stack
                0x0000000000000000        0x0 /home/tx/workspace/nacl_sdk/pepper_29/toolchain/linux_x86_newlib/bin/../lib/gcc/x86_64-nacl/4.4.3/../../../../x86_64-nacl/lib/../lib32/libcrt_common.a(lib_a-s_frexp.o)
 .note.GNU-stack
                0x0000000000000000        0x0 /home/tx/workspace/nacl_sdk/pepper_29/toolchain/linux_x86_newlib/bin/../lib/gcc/x86_64-nacl/4.4.3/32/libgcc.a(_udivdi3.o)
 .note.GNU-stack
                0x0000000000000000        0x0 /home/tx/workspace/nacl_sdk/pepper_29/toolchain/linux_x86_newlib/bin/../lib/gcc/x86_64-nacl/4.4.3/32/libgcc.a(_umoddi3.o)
 .note.GNU-stack
                0x0000000000000000        0x0 /home/tx/workspace/nacl_sdk/pepper_29/toolchain/linux_x86_newlib/bin/../lib/gcc/x86_64-nacl/4.4.3/32/crtend.o

Memory Configuration

Name             Origin             Length             Attributes
*default*        0x0000000000000000 0xffffffffffffffff

Linker script and memory map

LOAD /home/tx/workspace/nacl_sdk/pepper_29/toolchain/linux_x86_newlib/bin/../lib/gcc/x86_64-nacl/4.4.3/../../../../x86_64-nacl/lib/../lib32/crt1.o
LOAD /home/tx/workspace/nacl_sdk/pepper_29/toolchain/linux_x86_newlib/bin/../lib/gcc/x86_64-nacl/4.4.3/../../../../x86_64-nacl/lib/../lib32/crti.o
LOAD /home/tx/workspace/nacl_sdk/pepper_29/toolchain/linux_x86_newlib/bin/../lib/gcc/x86_64-nacl/4.4.3/32/crtbegin.o
LOAD newlib/Debug/tmp_x86_32.o
LOAD /home/tx/workspace/nacl_sdk/pepper_29/toolchain/linux_x86_newlib/bin/../lib/gcc/x86_64-nacl/4.4.3/../../../../x86_64-nacl/lib/../lib32/libppapi.a
LOAD /home/tx/workspace/nacl_sdk/pepper_29/toolchain/linux_x86_newlib/bin/../lib/gcc/x86_64-nacl/4.4.3/../../../../x86_64-nacl/lib/../lib32/libppapi_stub.a
LOAD /home/tx/workspace/nacl_sdk/pepper_29/toolchain/linux_x86_newlib/bin/../lib/gcc/x86_64-nacl/4.4.3/../../../../x86_64-nacl/lib/../lib32/libpthread.a
LOAD /home/tx/workspace/nacl_sdk/pepper_29/toolchain/linux_x86_newlib/bin/../lib/gcc/x86_64-nacl/4.4.3/../../../../x86_64-nacl/lib/../lib32/libstdc++.a
LOAD /home/tx/workspace/nacl_sdk/pepper_29/toolchain/linux_x86_newlib/bin/../lib/gcc/x86_64-nacl/4.4.3/../../../../x86_64-nacl/lib/../lib32/libm.a
LOAD /home/tx/workspace/nacl_sdk/pepper_29/toolchain/linux_x86_newlib/bin/../lib/gcc/x86_64-nacl/4.4.3/32/libgcc.a
LOAD /home/tx/workspace/nacl_sdk/pepper_29/toolchain/linux_x86_newlib/bin/../lib/gcc/x86_64-nacl/4.4.3/../../../../x86_64-nacl/lib/../lib32/libc.a
START GROUP
LOAD /home/tx/workspace/nacl_sdk/pepper_29/toolchain/linux_x86_newlib/bin/../lib/gcc/x86_64-nacl/4.4.3/../../../../x86_64-nacl/lib/../lib32/libcrt_common.a
LOAD /home/tx/workspace/nacl_sdk/pepper_29/toolchain/linux_x86_newlib/bin/../lib/gcc/x86_64-nacl/4.4.3/../../../../x86_64-nacl/lib/../lib32/libnacl.a
END GROUP
LOAD /home/tx/workspace/nacl_sdk/pepper_29/toolchain/linux_x86_newlib/bin/../lib/gcc/x86_64-nacl/4.4.3/32/libgcc.a
LOAD /home/tx/workspace/nacl_sdk/pepper_29/toolchain/linux_x86_newlib/bin/../lib/gcc/x86_64-nacl/4.4.3/32/crtend.o
LOAD /home/tx/workspace/nacl_sdk/pepper_29/toolchain/linux_x86_newlib/bin/../lib/gcc/x86_64-nacl/4.4.3/../../../../x86_64-nacl/lib/../lib32/crtn.o
                0x0000000000020000                PROVIDE (__executable_start, 0x20000)
                0x0000000000020000                . = 0x20000

.interp
 *(.interp)

.hash
 *(.hash)

.gnu.hash
 *(.gnu.hash)

.dynsym
 *(.dynsym)

.dynstr
 *(.dynstr)

.gnu.version
 *(.gnu.version)

.gnu.version_d
 *(.gnu.version_d)

.gnu.version_r
 *(.gnu.version_r)

.rel.init
 *(.rel.init)

.rel.text       0x0000000000020000        0x0
 *(.rel.text .rel.text.* .rel.gnu.linkonce.t.*)
 .rel.text      0x0000000000000000        0x0 /home/tx/workspace/nacl_sdk/pepper_29/toolchain/linux_x86_newlib/bin/../lib/gcc/x86_64-nacl/4.4.3/32/crtbegin.o

.rel.fini
 *(.rel.fini)

.rel.rodata
 *(.rel.rodata .rel.rodata.* .rel.gnu.linkonce.r.*)

.rel.data.rel.ro
 *(.rel.data.rel.ro* .rel.gnu.linkonce.d.rel.ro.*)

.rel.data
 *(.rel.data .rel.data.* .rel.gnu.linkonce.d.*)

.rel.tdata
 *(.rel.tdata .rel.tdata.* .rel.gnu.linkonce.td.*)

.rel.tbss
 *(.rel.tbss .rel.tbss.* .rel.gnu.linkonce.tb.*)

.rel.ctors
 *(.rel.ctors)

.rel.dtors
 *(.rel.dtors)

.rel.got        0x0000000000020000        0x0
 *(.rel.got)
 .rel.got       0x0000000000000000        0x0 /home/tx/workspace/nacl_sdk/pepper_29/toolchain/linux_x86_newlib/bin/../lib/gcc/x86_64-nacl/4.4.3/32/crtbegin.o

.rel.bss
 *(.rel.bss .rel.bss.* .rel.gnu.linkonce.b.*)

.rel.ifunc
 *(.rel.ifunc)

.rel.plt        0x0000000000020000        0x0
 *(.rel.plt)
                0x0000000000020000                PROVIDE (__rel_iplt_start, .)
 *(.rel.iplt)
 .rel.iplt      0x0000000000000000        0x0 /home/tx/workspace/nacl_sdk/pepper_29/toolchain/linux_x86_newlib/bin/../lib/gcc/x86_64-nacl/4.4.3/32/crtbegin.o
                0x0000000000020000                PROVIDE (__rel_iplt_end, .)

.init           0x0000000000020000       0x80
 *(.init)
 .init          0x0000000000020000       0x20 /home/tx/workspace/nacl_sdk/pepper_29/toolchain/linux_x86_newlib/bin/../lib/gcc/x86_64-nacl/4.4.3/../../../../x86_64-nacl/lib/../lib32/crti.o
                0x0000000000020000                _init
 .init          0x0000000000020020       0x20 /home/tx/workspace/nacl_sdk/pepper_29/toolchain/linux_x86_newlib/bin/../lib/gcc/x86_64-nacl/4.4.3/32/crtbegin.o
 .init          0x0000000000020040       0x20 /home/tx/workspace/nacl_sdk/pepper_29/toolchain/linux_x86_newlib/bin/../lib/gcc/x86_64-nacl/4.4.3/32/crtend.o
 .init          0x0000000000020060       0x20 /home/tx/workspace/nacl_sdk/pepper_29/toolchain/linux_x86_newlib/bin/../lib/gcc/x86_64-nacl/4.4.3/../../../../x86_64-nacl/lib/../lib32/crtn.o

.plt            0x0000000000020080        0x0
 *(.plt)
 *(.iplt)
 .iplt          0x0000000000000000        0x0 /home/tx/workspace/nacl_sdk/pepper_29/toolchain/linux_x86_newlib/bin/../lib/gcc/x86_64-nacl/4.4.3/32/crtbegin.o

.text           0x0000000000020080    0x1eb80
 *(.text .stub .text.* .gnu.linkonce.t.*)
 .text          0x0000000000020080        0x0 /home/tx/workspace/nacl_sdk/pepper_29/toolchain/linux_x86_newlib/bin/../lib/gcc/x86_64-nacl/4.4.3/../../../../x86_64-nacl/lib/../lib32/crti.o
 .text          0x0000000000020080      0x160 /home/tx/workspace/nacl_sdk/pepper_29/toolchain/linux_x86_newlib/bin/../lib/gcc/x86_64-nacl/4.4.3/32/crtbegin.o
 .text          0x00000000000201e0      0x740 newlib/Debug/tmp_x86_32.o
                0x0000000000020320                VarToCharPoint
                0x00000000000207c0                PPP_InitializeModule
                0x0000000000020840                PPP_GetInterface
                0x0000000000020900                PPP_ShutdownModule
 .text          0x0000000000020920       0x40 /home/tx/workspace/nacl_sdk/pepper_29/toolchain/linux_x86_newlib/bin/../lib/gcc/x86_64-nacl/4.4.3/../../../../x86_64-nacl/lib/../lib32/libppapi_stub.a(plugin_main_irt.o)
                0x0000000000020920                main
 .text          0x0000000000020960       0x40 /home/tx/workspace/nacl_sdk/pepper_29/toolchain/linux_x86_newlib/bin/../lib/gcc/x86_64-nacl/4.4.3/../../../../x86_64-nacl/lib/../lib32/libppapi_stub.a(ppapi_plugin_main.o)
                0x0000000000020960                PpapiPluginMain
 .text          0x00000000000209a0      0x1e0 /home/tx/workspace/nacl_sdk/pepper_29/toolchain/linux_x86_newlib/bin/../lib/gcc/x86_64-nacl/4.4.3/../../../../x86_64-nacl/lib/../lib32/libppapi_stub.a(ppapi_plugin_start.o)
                0x0000000000020a00                PpapiPluginStart
 .text          0x0000000000020b80       0xc0 /home/tx/workspace/nacl_sdk/pepper_29/toolchain/linux_x86_newlib/bin/../lib/gcc/x86_64-nacl/4.4.3/../../../../x86_64-nacl/lib/../lib32/libppapi_stub.a(thread_creator.o)
                0x0000000000020b80                __nacl_register_thread_creator
 .text          0x0000000000020c40     0x1da0 /home/tx/workspace/nacl_sdk/pepper_29/toolchain/linux_x86_newlib/bin/../lib/gcc/x86_64-nacl/4.4.3/../../../../x86_64-nacl/lib/../lib32/libpthread.a(nc_thread.o)
                0x0000000000020c40                pthread_kill
                0x0000000000020c60                pthread_equal
                0x0000000000020c80                pthread_attr_init
                0x0000000000020cc0                pthread_attr_destroy
                0x0000000000020ce0                pthread_attr_setdetachstate
                0x0000000000020d20                pthread_attr_getdetachstate
                0x0000000000020d60                pthread_attr_setstacksize
                0x0000000000020de0                pthread_attr_getstacksize
                0x0000000000020e20                pthread_getspecific
                0x0000000000020ec0                __nc_tsd_exit
                0x0000000000021120                pthread_cleanup_pop
                0x0000000000021200                pthread_setspecific
                0x0000000000021320                pthread_key_delete
                0x00000000000213c0                pthread_key_create
                0x0000000000021460                __local_lock_release
                0x00000000000214a0                __local_lock_release_recursive
                0x00000000000214c0                __local_lock_try_acquire
                0x0000000000021520                __local_lock_try_acquire_recursive
                0x0000000000021540                __local_lock_acquire
                0x0000000000021580                __local_lock_acquire_recursive
                0x00000000000215a0                __local_lock_close
                0x00000000000215e0                __local_lock_close_recursive
                0x0000000000021600                __local_lock_init_recursive
                0x0000000000021680                __local_lock_init
                0x0000000000021700                pthread_self
                0x0000000000021740                pthread_setschedprio
                0x0000000000021800                pthread_detach
                0x00000000000218e0                pthread_join
                0x0000000000021aa0                pthread_exit
                0x0000000000021f00                pthread_cleanup_push
                0x0000000000022280                pthread_create
                0x0000000000022800                __nc_initialize_globals
                0x0000000000022940                __pthread_initialize
 .text          0x00000000000229e0      0x620 /home/tx/workspace/nacl_sdk/pepper_29/toolchain/linux_x86_newlib/bin/../lib/gcc/x86_64-nacl/4.4.3/../../../../x86_64-nacl/lib/../lib32/libpthread.a(nc_mutex.o)
                0x00000000000229e0                pthread_mutex_init
                0x0000000000022a40                pthread_mutex_destroy
                0x0000000000022aa0                pthread_mutexattr_init
                0x0000000000022ac0                pthread_mutexattr_destroy
                0x0000000000022ae0                pthread_mutexattr_settype
                0x0000000000022b20                pthread_mutexattr_gettype
                0x0000000000022b40                pthread_mutex_unlock
                0x0000000000022ec0                pthread_mutex_lock
                0x0000000000022ee0                pthread_once
                0x0000000000022fe0                pthread_mutex_trylock
 .text          0x0000000000023000      0x1e0 /home/tx/workspace/nacl_sdk/pepper_29/toolchain/linux_x86_newlib/bin/../lib/gcc/x86_64-nacl/4.4.3/../../../../x86_64-nacl/lib/../lib32/libpthread.a(nc_condvar.o)
                0x0000000000023000                pthread_cond_init
                0x0000000000023020                pthread_cond_destroy
                0x0000000000023040                pthread_cond_timedwait_abs
                0x0000000000023120                pthread_cond_wait
                0x00000000000231a0                pthread_cond_broadcast
                0x00000000000231c0                pthread_cond_signal
 .text          0x00000000000231e0       0xa0 /home/tx/workspace/nacl_sdk/pepper_29/toolchain/linux_x86_newlib/bin/../lib/gcc/x86_64-nacl/4.4.3/../../../../x86_64-nacl/lib/../lib32/libpthread.a(nc_init_irt.o)
                0x00000000000231e0                __nc_initialize_interfaces
 .text          0x0000000000023280      0x540 /home/tx/workspace/nacl_sdk/pepper_29/toolchain/linux_x86_newlib/bin/../lib/gcc/x86_64-nacl/4.4.3/../../../../x86_64-nacl/lib/../lib32/libpthread.a(dynamic_annotations.o)
                0x0000000000023280                NACL_AnnotateRWLockCreate
                0x00000000000232a0                NACL_AnnotateRWLockDestroy
                0x00000000000232c0                NACL_AnnotateRWLockAcquired
                0x00000000000232e0                NACL_AnnotateRWLockReleased
                0x0000000000023300                NACL_AnnotateBarrierInit
                0x0000000000023320                NACL_AnnotateBarrierWaitBefore
                0x0000000000023340                NACL_AnnotateBarrierWaitAfter
                0x0000000000023360                NACL_AnnotateBarrierDestroy
                0x0000000000023380                NACL_AnnotateCondVarWait
                0x00000000000233a0                NACL_AnnotateCondVarSignal
                0x00000000000233c0                NACL_AnnotateCondVarSignalAll
                0x00000000000233e0                NACL_AnnotateHappensBefore
                0x0000000000023400                NACL_AnnotateHappensAfter
                0x0000000000023420                NACL_AnnotatePublishMemoryRange
                0x0000000000023440                NACL_AnnotateUnpublishMemoryRange
                0x0000000000023460                NACL_AnnotatePCQCreate
                0x0000000000023480                NACL_AnnotatePCQDestroy
                0x00000000000234a0                NACL_AnnotatePCQPut
                0x00000000000234c0                NACL_AnnotatePCQGet
                0x00000000000234e0                NACL_AnnotateNewMemory
                0x0000000000023500                NACL_AnnotateExpectRace
                0x0000000000023520                NACL_AnnotateFlushExpectedRaces
                0x0000000000023540                NACL_AnnotateBenignRace
                0x0000000000023560                NACL_AnnotateBenignRaceSized
                0x0000000000023580                NACL_AnnotateMutexIsUsedAsCondVar
                0x00000000000235a0                NACL_AnnotateMutexIsNotPHB
                0x00000000000235c0                NACL_AnnotateTraceMemory
                0x00000000000235e0                NACL_AnnotateThreadName
                0x0000000000023600                NACL_AnnotateIgnoreReadsBegin
                0x0000000000023620                NACL_AnnotateIgnoreReadsEnd
                0x0000000000023640                NACL_AnnotateIgnoreWritesBegin
                0x0000000000023660                NACL_AnnotateIgnoreWritesEnd
                0x0000000000023680                NACL_AnnotateIgnoreSyncBegin
                0x00000000000236a0                NACL_AnnotateIgnoreSyncEnd
                0x00000000000236c0                NACL_AnnotateEnableRaceDetection
                0x00000000000236e0                NACL_AnnotateNoOp
                0x0000000000023700                NACL_AnnotateFlushState
                0x0000000000023720                RunningOnValgrind
 .text          0x00000000000237c0      0x7c0 /home/tx/workspace/nacl_sdk/pepper_29/toolchain/linux_x86_newlib/bin/../lib/gcc/x86_64-nacl/4.4.3/../../../../x86_64-nacl/lib/../lib32/libpthread.a(futex.o)
                0x00000000000237c0                __nc_futex_wake
                0x00000000000239c0                __nc_futex_wait
                0x0000000000023dc0                __nc_futex_thread_exit
                0x0000000000023ec0                __nc_futex_init
 .text          0x0000000000023f80      0x100 /home/tx/workspace/nacl_sdk/pepper_29/toolchain/linux_x86_newlib/bin/../lib/gcc/x86_64-nacl/4.4.3/../../../../x86_64-nacl/lib/../lib32/libcrt_common.a(lib_a-assert.o)
                0x0000000000023f80                __assert_func
                0x0000000000024040                __assert
 .text          0x0000000000024080        0x0 /home/tx/workspace/nacl_sdk/pepper_29/toolchain/linux_x86_newlib/bin/../lib/gcc/x86_64-nacl/4.4.3/../../../../x86_64-nacl/lib/../lib32/libcrt_common.a(lib_a-environ.o)
 .text          0x0000000000024080       0x60 /home/tx/workspace/nacl_sdk/pepper_29/toolchain/linux_x86_newlib/bin/../lib/gcc/x86_64-nacl/4.4.3/../../../../x86_64-nacl/lib/../lib32/libcrt_common.a(lib_a-exit.o)
                0x0000000000024080                exit
 .text          0x00000000000240e0       0xe0 /home/tx/workspace/nacl_sdk/pepper_29/toolchain/linux_x86_newlib/bin/../lib/gcc/x86_64-nacl/4.4.3/../../../../x86_64-nacl/lib/../lib32/libcrt_common.a(lib_a-fiprintf.o)
                0x00000000000240e0                fiprintf
                0x0000000000024160                _fiprintf_r
 .text          0x00000000000241c0       0xc0 /home/tx/workspace/nacl_sdk/pepper_29/toolchain/linux_x86_newlib/bin/../lib/gcc/x86_64-nacl/4.4.3/../../../../x86_64-nacl/lib/../lib32/libcrt_common.a(lib_a-getenv.o)
                0x00000000000241c0                getenv
                0x0000000000024220                _findenv
 .text          0x0000000000024280      0x240 /home/tx/workspace/nacl_sdk/pepper_29/toolchain/linux_x86_newlib/bin/../lib/gcc/x86_64-nacl/4.4.3/../../../../x86_64-nacl/lib/../lib32/libcrt_common.a(lib_a-getenv_r.o)
                0x0000000000024280                _findenv_r
                0x0000000000024480                _getenv_r
 .text          0x00000000000244c0       0x80 /home/tx/workspace/nacl_sdk/pepper_29/toolchain/linux_x86_newlib/bin/../lib/gcc/x86_64-nacl/4.4.3/../../../../x86_64-nacl/lib/../lib32/libcrt_common.a(lib_a-impure.o)
                0x00000000000244c0                __newlib_thread_init
                0x0000000000024520                __newlib_thread_exit
 .text          0x0000000000024540       0x60 /home/tx/workspace/nacl_sdk/pepper_29/toolchain/linux_x86_newlib/bin/../lib/gcc/x86_64-nacl/4.4.3/../../../../x86_64-nacl/lib/../lib32/libcrt_common.a(lib_a-memcpy.o)
                0x0000000000024540                memcpy
 .text          0x00000000000245a0       0xe0 /home/tx/workspace/nacl_sdk/pepper_29/toolchain/linux_x86_newlib/bin/../lib/gcc/x86_64-nacl/4.4.3/../../../../x86_64-nacl/lib/../lib32/libcrt_common.a(lib_a-strcat.o)
                0x00000000000245a0                strcat
 .text          0x0000000000024680      0x100 /home/tx/workspace/nacl_sdk/pepper_29/toolchain/linux_x86_newlib/bin/../lib/gcc/x86_64-nacl/4.4.3/../../../../x86_64-nacl/lib/../lib32/libcrt_common.a(lib_a-strcmp.o)
                0x0000000000024680                strcmp
 .text          0x0000000000024780       0xa0 /home/tx/workspace/nacl_sdk/pepper_29/toolchain/linux_x86_newlib/bin/../lib/gcc/x86_64-nacl/4.4.3/../../../../x86_64-nacl/lib/../lib32/libcrt_common.a(lib_a-strcpy.o)
                0x0000000000024780                strcpy
 .text          0x0000000000024820       0xa0 /home/tx/workspace/nacl_sdk/pepper_29/toolchain/linux_x86_newlib/bin/../lib/gcc/x86_64-nacl/4.4.3/../../../../x86_64-nacl/lib/../lib32/libcrt_common.a(lib_a-strlen.o)
                0x0000000000024820                strlen
 .text          0x00000000000248c0      0x1a0 /home/tx/workspace/nacl_sdk/pepper_29/toolchain/linux_x86_newlib/bin/../lib/gcc/x86_64-nacl/4.4.3/../../../../x86_64-nacl/lib/../lib32/libcrt_common.a(lib_a-strncmp.o)
                0x00000000000248c0                strncmp
 .text          0x0000000000024a60     0x26c0 /home/tx/workspace/nacl_sdk/pepper_29/toolchain/linux_x86_newlib/bin/../lib/gcc/x86_64-nacl/4.4.3/../../../../x86_64-nacl/lib/../lib32/libcrt_common.a(lib_a-vfiprintf.o)
                0x0000000000024a60                __sprint_r
                0x0000000000024c00                _vfiprintf_r
                0x00000000000270c0                vfiprintf
 .text          0x0000000000027120      0x2c0 /home/tx/workspace/nacl_sdk/pepper_29/toolchain/linux_x86_newlib/bin/../lib/gcc/x86_64-nacl/4.4.3/../../../../x86_64-nacl/lib/../lib32/libcrt_common.a(lib_a-wcrtomb.o)
                0x0000000000027120                wcrtomb
                0x00000000000272e0                _wcrtomb_r
 .text          0x00000000000273e0       0xe0 /home/tx/workspace/nacl_sdk/pepper_29/toolchain/linux_x86_newlib/bin/../lib/gcc/x86_64-nacl/4.4.3/../../../../x86_64-nacl/lib/../lib32/libcrt_common.a(lib_a-wcsrtombs.o)
                0x00000000000273e0                wcsrtombs
                0x0000000000027460                _wcsrtombs_r
 .text          0x00000000000274c0      0x540 /home/tx/workspace/nacl_sdk/pepper_29/toolchain/linux_x86_newlib/bin/../lib/gcc/x86_64-nacl/4.4.3/../../../../x86_64-nacl/lib/../lib32/libcrt_common.a(lib_a-wctomb_r.o)
                0x00000000000274c0                __ascii_wctomb
                0x0000000000027520                __utf8_wctomb
                0x0000000000027680                __sjis_wctomb
                0x0000000000027760                __eucjp_wctomb
                0x0000000000027860                __jis_wctomb
                0x0000000000027980                _wctomb_r
 .text          0x0000000000027a00      0x280 /home/tx/workspace/nacl_sdk/pepper_29/toolchain/linux_x86_newlib/bin/../lib/gcc/x86_64-nacl/4.4.3/../../../../x86_64-nacl/lib/../lib32/libcrt_common.a(lib_a-wsetup.o)
                0x0000000000027a00                __swsetup_r
 .text          0x0000000000027c80       0x20 /home/tx/workspace/nacl_sdk/pepper_29/toolchain/linux_x86_newlib/bin/../lib/gcc/x86_64-nacl/4.4.3/../../../../x86_64-nacl/lib/../lib32/libcrt_common.a(lib_a-abort.o)
                0x0000000000027c80                abort
 .text          0x0000000000027ca0      0x300 /home/tx/workspace/nacl_sdk/pepper_29/toolchain/linux_x86_newlib/bin/../lib/gcc/x86_64-nacl/4.4.3/../../../../x86_64-nacl/lib/../lib32/libcrt_common.a(lib_a-__call_atexit.o)
                0x0000000000027ca0                __call_exitprocs
 .text          0x0000000000027fa0       0x40 /home/tx/workspace/nacl_sdk/pepper_29/toolchain/linux_x86_newlib/bin/../lib/gcc/x86_64-nacl/4.4.3/../../../../x86_64-nacl/lib/../lib32/libcrt_common.a(lib_a-envlock.o)
                0x0000000000027fa0                __env_unlock
                0x0000000000027fc0                __env_lock
 .text          0x0000000000027fe0      0x5c0 /home/tx/workspace/nacl_sdk/pepper_29/toolchain/linux_x86_newlib/bin/../lib/gcc/x86_64-nacl/4.4.3/../../../../x86_64-nacl/lib/../lib32/libcrt_common.a(lib_a-fflush.o)
                0x0000000000027fe0                __sflush_r
                0x00000000000283e0                _fflush_r
                0x0000000000028500                fflush
 .text          0x00000000000285a0      0x860 /home/tx/workspace/nacl_sdk/pepper_29/toolchain/linux_x86_newlib/bin/../lib/gcc/x86_64-nacl/4.4.3/../../../../x86_64-nacl/lib/../lib32/libcrt_common.a(lib_a-findfp.o)
                0x00000000000285a0                _cleanup_r
                0x00000000000285e0                _cleanup
                0x0000000000028660                __sinit_lock_release
                0x00000000000286a0                __sfp_lock_release
                0x00000000000286e0                __fp_unlock_all
                0x0000000000028780                __sinit_lock_acquire
                0x00000000000287c0                __sfp_lock_acquire
                0x0000000000028800                __fp_lock_all
                0x0000000000028940                __sinit
                0x0000000000028ae0                __sfmoreglue
                0x0000000000028b80                __sfp
 .text          0x0000000000028e00      0x3e0 /home/tx/workspace/nacl_sdk/pepper_29/toolchain/linux_x86_newlib/bin/../lib/gcc/x86_64-nacl/4.4.3/../../../../x86_64-nacl/lib/../lib32/libcrt_common.a(lib_a-fputwc.o)
                0x0000000000028e00                _fputwc_r
                0x0000000000029120                fputwc
 .text          0x00000000000291e0      0x7c0 /home/tx/workspace/nacl_sdk/pepper_29/toolchain/linux_x86_newlib/bin/../lib/gcc/x86_64-nacl/4.4.3/../../../../x86_64-nacl/lib/../lib32/libcrt_common.a(lib_a-fvwrite.o)
                0x00000000000291e0                __sfvwrite_r
 .text          0x00000000000299a0      0x360 /home/tx/workspace/nacl_sdk/pepper_29/toolchain/linux_x86_newlib/bin/../lib/gcc/x86_64-nacl/4.4.3/../../../../x86_64-nacl/lib/../lib32/libcrt_common.a(lib_a-fwalk.o)
                0x00000000000299a0                _fwalk_reent
                0x0000000000029b20                _fwalk
 .text          0x0000000000029d00     0x1880 /home/tx/workspace/nacl_sdk/pepper_29/toolchain/linux_x86_newlib/bin/../lib/gcc/x86_64-nacl/4.4.3/../../../../x86_64-nacl/lib/../lib32/libcrt_common.a(lib_a-locale.o)
                0x0000000000029d00                __locale_charset
                0x0000000000029d20                __locale_mb_cur_max
                0x0000000000029d40                __locale_msgcharset
                0x0000000000029d60                __locale_cjk_lang
                0x0000000000029d80                _localeconv_r
                0x0000000000029da0                localeconv
                0x000000000002ae60                _setlocale_r
                0x000000000002b520                setlocale
 .text          0x000000000002b580      0x260 /home/tx/workspace/nacl_sdk/pepper_29/toolchain/linux_x86_newlib/bin/../lib/gcc/x86_64-nacl/4.4.3/../../../../x86_64-nacl/lib/../lib32/libcrt_common.a(lib_a-makebuf.o)
                0x000000000002b580                __smakebuf_r
 .text          0x000000000002b7e0      0xd20 /home/tx/workspace/nacl_sdk/pepper_29/toolchain/linux_x86_newlib/bin/../lib/gcc/x86_64-nacl/4.4.3/../../../../x86_64-nacl/lib/../lib32/libcrt_common.a(lib_a-mbtowc_r.o)
                0x000000000002b7e0                __ascii_mbtowc
                0x000000000002b860                __utf8_mbtowc
                0x000000000002be00                __sjis_mbtowc
                0x000000000002bf80                __eucjp_mbtowc
                0x000000000002c1e0                __jis_mbtowc
                0x000000000002c480                _mbtowc_r
 .text          0x000000000002c500       0xa0 /home/tx/workspace/nacl_sdk/pepper_29/toolchain/linux_x86_newlib/bin/../lib/gcc/x86_64-nacl/4.4.3/../../../../x86_64-nacl/lib/../lib32/libcrt_common.a(lib_a-memchr.o)
                0x000000000002c500                memchr
 .text          0x000000000002c5a0       0xa0 /home/tx/workspace/nacl_sdk/pepper_29/toolchain/linux_x86_newlib/bin/../lib/gcc/x86_64-nacl/4.4.3/../../../../x86_64-nacl/lib/../lib32/libcrt_common.a(lib_a-memmove.o)
                0x000000000002c5a0                memmove
 .text          0x000000000002c640       0xa0 /home/tx/workspace/nacl_sdk/pepper_29/toolchain/linux_x86_newlib/bin/../lib/gcc/x86_64-nacl/4.4.3/../../../../x86_64-nacl/lib/../lib32/libcrt_common.a(lib_a-memset.o)
                0x000000000002c640                memset
 .text          0x000000000002c6e0      0x200 /home/tx/workspace/nacl_sdk/pepper_29/toolchain/linux_x86_newlib/bin/../lib/gcc/x86_64-nacl/4.4.3/../../../../x86_64-nacl/lib/../lib32/libcrt_common.a(lib_a-stdio.o)
                0x000000000002c6e0                __seofread
                0x000000000002c700                __sclose
                0x000000000002c720                __sseek
                0x000000000002c7a0                __swrite
                0x000000000002c860                __sread
 .text          0x000000000002c8e0       0x80 /home/tx/workspace/nacl_sdk/pepper_29/toolchain/linux_x86_newlib/bin/../lib/gcc/x86_64-nacl/4.4.3/../../../../x86_64-nacl/lib/../lib32/libcrt_common.a(lib_a-strcasecmp.o)
                0x000000000002c8e0                strcasecmp
 .text          0x000000000002c960      0x120 /home/tx/workspace/nacl_sdk/pepper_29/toolchain/linux_x86_newlib/bin/../lib/gcc/x86_64-nacl/4.4.3/../../../../x86_64-nacl/lib/../lib32/libcrt_common.a(lib_a-strchr.o)
                0x000000000002c960                strchr
 .text          0x000000000002ca80       0xa0 /home/tx/workspace/nacl_sdk/pepper_29/toolchain/linux_x86_newlib/bin/../lib/gcc/x86_64-nacl/4.4.3/../../../../x86_64-nacl/lib/../lib32/libcrt_common.a(lib_a-strlcpy.o)
                0x000000000002ca80                strlcpy
 .text          0x000000000002cb20       0xa0 /home/tx/workspace/nacl_sdk/pepper_29/toolchain/linux_x86_newlib/bin/../lib/gcc/x86_64-nacl/4.4.3/../../../../x86_64-nacl/lib/../lib32/libcrt_common.a(lib_a-strncasecmp.o)
                0x000000000002cb20                strncasecmp
 .text          0x000000000002cbc0      0x140 /home/tx/workspace/nacl_sdk/pepper_29/toolchain/linux_x86_newlib/bin/../lib/gcc/x86_64-nacl/4.4.3/../../../../x86_64-nacl/lib/../lib32/libcrt_common.a(lib_a-strncpy.o)
                0x000000000002cbc0                strncpy
 .text          0x000000000002cd00      0x380 /home/tx/workspace/nacl_sdk/pepper_29/toolchain/linux_x86_newlib/bin/../lib/gcc/x86_64-nacl/4.4.3/../../../../x86_64-nacl/lib/../lib32/libcrt_common.a(lib_a-strtol.o)
                0x000000000002cd00                _strtol_r
                0x000000000002d020                strtol
 .text          0x000000000002d080      0x2a0 /home/tx/workspace/nacl_sdk/pepper_29/toolchain/linux_x86_newlib/bin/../lib/gcc/x86_64-nacl/4.4.3/../../../../x86_64-nacl/lib/../lib32/libcrt_common.a(lib_a-wbuf.o)
                0x000000000002d080                __swbuf_r
                0x000000000002d2c0                __swbuf
 .text          0x000000000002d320      0x300 /home/tx/workspace/nacl_sdk/pepper_29/toolchain/linux_x86_newlib/bin/../lib/gcc/x86_64-nacl/4.4.3/../../../../x86_64-nacl/lib/../lib32/libcrt_common.a(lib_a-wcsnrtombs.o)
                0x000000000002d320                _wcsnrtombs_r
                0x000000000002d5a0                wcsnrtombs
 .text          0x000000000002d620       0xa0 /home/tx/workspace/nacl_sdk/pepper_29/toolchain/linux_x86_newlib/bin/../lib/gcc/x86_64-nacl/4.4.3/../../../../x86_64-nacl/lib/../lib32/libcrt_common.a(lib_a-writer.o)
                0x000000000002d620                _write_r
 .text          0x000000000002d6c0      0x220 /home/tx/workspace/nacl_sdk/pepper_29/toolchain/linux_x86_newlib/bin/../lib/gcc/x86_64-nacl/4.4.3/../../../../x86_64-nacl/lib/../lib32/libcrt_common.a(lib_a-__atexit.o)
                0x000000000002d6c0                __register_exitproc
 .text          0x000000000002d8e0       0x80 /home/tx/workspace/nacl_sdk/pepper_29/toolchain/linux_x86_newlib/bin/../lib/gcc/x86_64-nacl/4.4.3/../../../../x86_64-nacl/lib/../lib32/libcrt_common.a(lib_a-closer.o)
                0x000000000002d8e0                _close_r
 .text          0x000000000002d960       0x20 /home/tx/workspace/nacl_sdk/pepper_29/toolchain/linux_x86_newlib/bin/../lib/gcc/x86_64-nacl/4.4.3/../../../../x86_64-nacl/lib/../lib32/libcrt_common.a(lib_a-ctype_.o)
                0x000000000002d960                __set_ctype
 .text          0x000000000002d980      0x300 /home/tx/workspace/nacl_sdk/pepper_29/toolchain/linux_x86_newlib/bin/../lib/gcc/x86_64-nacl/4.4.3/../../../../x86_64-nacl/lib/../lib32/libcrt_common.a(lib_a-fclose.o)
                0x000000000002d980                _fclose_r
                0x000000000002dc20                fclose
 .text          0x000000000002dc80       0xa0 /home/tx/workspace/nacl_sdk/pepper_29/toolchain/linux_x86_newlib/bin/../lib/gcc/x86_64-nacl/4.4.3/../../../../x86_64-nacl/lib/../lib32/libcrt_common.a(lib_a-fstatr.o)
                0x000000000002dc80                _fstat_r
 .text          0x000000000002dd20       0x80 /home/tx/workspace/nacl_sdk/pepper_29/toolchain/linux_x86_newlib/bin/../lib/gcc/x86_64-nacl/4.4.3/../../../../x86_64-nacl/lib/../lib32/libcrt_common.a(lib_a-isattyr.o)
                0x000000000002dd20                _isatty_r
 .text          0x000000000002dda0       0xa0 /home/tx/workspace/nacl_sdk/pepper_29/toolchain/linux_x86_newlib/bin/../lib/gcc/x86_64-nacl/4.4.3/../../../../x86_64-nacl/lib/../lib32/libcrt_common.a(lib_a-lseekr.o)
                0x000000000002dda0                _lseek_r
 .text          0x000000000002de40       0xa0 /home/tx/workspace/nacl_sdk/pepper_29/toolchain/linux_x86_newlib/bin/../lib/gcc/x86_64-nacl/4.4.3/../../../../x86_64-nacl/lib/../lib32/libcrt_common.a(lib_a-readr.o)
                0x000000000002de40                _read_r
 .text          0x000000000002dee0      0x3c0 /home/tx/workspace/nacl_sdk/pepper_29/toolchain/linux_x86_newlib/bin/../lib/gcc/x86_64-nacl/4.4.3/../../../../x86_64-nacl/lib/../lib32/libcrt_common.a(lib_a-reent.o)
                0x000000000002dee0                _wrapup_reent
                0x000000000002e020                cleanup_glue
                0x000000000002e080                _reclaim_reent
 .text          0x000000000002e2a0       0x20 /home/tx/workspace/nacl_sdk/pepper_29/toolchain/linux_x86_newlib/bin/../lib/gcc/x86_64-nacl/4.4.3/../../../../x86_64-nacl/lib/../lib32/libcrt_common.a(lib_a-isatty.o)
                0x000000000002e2a0                isatty
 .text          0x000000000002e2c0       0xa0 /home/tx/workspace/nacl_sdk/pepper_29/toolchain/linux_x86_newlib/bin/../lib/gcc/x86_64-nacl/4.4.3/../../../../x86_64-nacl/lib/../lib32/libcrt_common.a(lib_a-_isatty.o)
                0x000000000002e2c0                _isatty
 .text          0x000000000002e360       0x40 /home/tx/workspace/nacl_sdk/pepper_29/toolchain/linux_x86_newlib/bin/../lib/gcc/x86_64-nacl/4.4.3/../../../../x86_64-nacl/lib/../lib32/libcrt_common.a(lib_a-errno.o)
                0x000000000002e360                __errno
 .text          0x000000000002e3a0      0x3c0 /home/tx/workspace/nacl_sdk/pepper_29/toolchain/linux_x86_newlib/bin/../lib/gcc/x86_64-nacl/4.4.3/../../../../x86_64-nacl/lib/../lib32/libnacl.a(nacl_irt.o)
                0x000000000002e3c0                __libnacl_irt_query
                0x000000000002e4c0                __libnacl_mandatory_irt_query
                0x000000000002e5a0                __libnacl_irt_init
 .text          0x000000000002e760       0xa0 /home/tx/workspace/nacl_sdk/pepper_29/toolchain/linux_x86_newlib/bin/../lib/gcc/x86_64-nacl/4.4.3/../../../../x86_64-nacl/lib/../lib32/libnacl.a(close.o)
                0x000000000002e760                close
 .text          0x000000000002e800       0x40 /home/tx/workspace/nacl_sdk/pepper_29/toolchain/linux_x86_newlib/bin/../lib/gcc/x86_64-nacl/4.4.3/../../../../x86_64-nacl/lib/../lib32/libnacl.a(_exit.o)
                0x000000000002e800                _exit
 .text          0x000000000002e840       0xa0 /home/tx/workspace/nacl_sdk/pepper_29/toolchain/linux_x86_newlib/bin/../lib/gcc/x86_64-nacl/4.4.3/../../../../x86_64-nacl/lib/../lib32/libnacl.a(fstat.o)
                0x000000000002e840                fstat
 .text          0x000000000002e8e0       0xc0 /home/tx/workspace/nacl_sdk/pepper_29/toolchain/linux_x86_newlib/bin/../lib/gcc/x86_64-nacl/4.4.3/../../../../x86_64-nacl/lib/../lib32/libnacl.a(lseek.o)
                0x000000000002e8e0                lseek
 .text          0x000000000002e9a0     0x6b40 /home/tx/workspace/nacl_sdk/pepper_29/toolchain/linux_x86_newlib/bin/../lib/gcc/x86_64-nacl/4.4.3/../../../../x86_64-nacl/lib/../lib32/libnacl.a(malloc.o)
                0x000000000002e9a0                malloc_footprint
                0x000000000002e9c0                malloc_max_footprint
                0x000000000002e9e0                malloc_footprint_limit
                0x000000000002ea00                malloc_set_footprint_limit
                0x000000000002ea40                malloc_usable_size
                0x000000000002ec80                mallopt
                0x0000000000030380                bulk_free
                0x0000000000030580                malloc_trim
                0x00000000000306a0                free
                0x0000000000031280                _free_r
                0x00000000000312a0                mallinfo
                0x0000000000031640                malloc_stats
                0x00000000000319a0                malloc
                0x0000000000033f00                _malloc_r
                0x0000000000033f20                calloc
                0x0000000000033fe0                _calloc_r
                0x0000000000034620                realloc
                0x00000000000348a0                _realloc_r
                0x00000000000348c0                realloc_in_place
                0x0000000000034da0                memalign
                0x0000000000034de0                pvalloc
                0x0000000000034e40                valloc
                0x0000000000034ea0                posix_memalign
                0x0000000000035460                independent_calloc
                0x00000000000354c0                independent_comalloc
 .text          0x00000000000354e0       0xc0 /home/tx/workspace/nacl_sdk/pepper_29/toolchain/linux_x86_newlib/bin/../lib/gcc/x86_64-nacl/4.4.3/../../../../x86_64-nacl/lib/../lib32/libnacl.a(mmap.o)
                0x00000000000354e0                mmap
 .text          0x00000000000355a0       0xa0 /home/tx/workspace/nacl_sdk/pepper_29/toolchain/linux_x86_newlib/bin/../lib/gcc/x86_64-nacl/4.4.3/../../../../x86_64-nacl/lib/../lib32/libnacl.a(munmap.o)
                0x00000000000355a0                munmap
 .text          0x0000000000035640       0x20 /home/tx/workspace/nacl_sdk/pepper_29/toolchain/linux_x86_newlib/bin/../lib/gcc/x86_64-nacl/4.4.3/../../../../x86_64-nacl/lib/../lib32/libnacl.a(nacl_read_tp.o)
                0x0000000000035640                __nacl_read_tp
 .text          0x0000000000035660       0xc0 /home/tx/workspace/nacl_sdk/pepper_29/toolchain/linux_x86_newlib/bin/../lib/gcc/x86_64-nacl/4.4.3/../../../../x86_64-nacl/lib/../lib32/libnacl.a(read.o)
                0x0000000000035660                read
 .text          0x0000000000035720       0xa0 /home/tx/workspace/nacl_sdk/pepper_29/toolchain/linux_x86_newlib/bin/../lib/gcc/x86_64-nacl/4.4.3/../../../../x86_64-nacl/lib/../lib32/libnacl.a(pthread_initialize_minimal.o)
                0x0000000000035720                __pthread_initialize_minimal
 .text          0x00000000000357c0      0x140 /home/tx/workspace/nacl_sdk/pepper_29/toolchain/linux_x86_newlib/bin/../lib/gcc/x86_64-nacl/4.4.3/../../../../x86_64-nacl/lib/../lib32/libnacl.a(sbrk.o)
                0x00000000000357c0                sbrk
 .text          0x0000000000035900       0xa0 /home/tx/workspace/nacl_sdk/pepper_29/toolchain/linux_x86_newlib/bin/../lib/gcc/x86_64-nacl/4.4.3/../../../../x86_64-nacl/lib/../lib32/libnacl.a(sched_yield.o)
                0x0000000000035900                sched_yield
 .text          0x00000000000359a0      0x120 /home/tx/workspace/nacl_sdk/pepper_29/toolchain/linux_x86_newlib/bin/../lib/gcc/x86_64-nacl/4.4.3/../../../../x86_64-nacl/lib/../lib32/libnacl.a(start.o)
                0x00000000000359a0                _start
 .text          0x0000000000035ac0       0xa0 /home/tx/workspace/nacl_sdk/pepper_29/toolchain/linux_x86_newlib/bin/../lib/gcc/x86_64-nacl/4.4.3/../../../../x86_64-nacl/lib/../lib32/libnacl.a(sysconf.o)
                0x0000000000035ac0                sysconf
 .text          0x0000000000035b60      0x300 /home/tx/workspace/nacl_sdk/pepper_29/toolchain/linux_x86_newlib/bin/../lib/gcc/x86_64-nacl/4.4.3/../../../../x86_64-nacl/lib/../lib32/libnacl.a(tls.o)
                0x0000000000035ce0                __nacl_tls_combined_size
                0x0000000000035d60                __nacl_tls_initialize_memory
 .text          0x0000000000035e60       0xc0 /home/tx/workspace/nacl_sdk/pepper_29/toolchain/linux_x86_newlib/bin/../lib/gcc/x86_64-nacl/4.4.3/../../../../x86_64-nacl/lib/../lib32/libnacl.a(write.o)
                0x0000000000035e60                write
 .text          0x0000000000035f20       0x20 /home/tx/workspace/nacl_sdk/pepper_29/toolchain/linux_x86_newlib/bin/../lib/gcc/x86_64-nacl/4.4.3/../../../../x86_64-nacl/lib/../lib32/libnacl.a(nacl_tls_init.o)
                0x0000000000035f20                nacl_tls_init
 .text          0x0000000000035f40       0x60 /home/tx/workspace/nacl_sdk/pepper_29/toolchain/linux_x86_newlib/bin/../lib/gcc/x86_64-nacl/4.4.3/../../../../x86_64-nacl/lib/../lib32/libcrt_common.a(lib_a-atexit.o)
                0x0000000000035f40                atexit
 .text          0x0000000000035fa0       0x80 /home/tx/workspace/nacl_sdk/pepper_29/toolchain/linux_x86_newlib/bin/../lib/gcc/x86_64-nacl/4.4.3/../../../../x86_64-nacl/lib/../lib32/libcrt_common.a(lib_a-fini.o)
                0x0000000000035fa0                __libc_fini_array
 .text          0x0000000000036020       0xe0 /home/tx/workspace/nacl_sdk/pepper_29/toolchain/linux_x86_newlib/bin/../lib/gcc/x86_64-nacl/4.4.3/../../../../x86_64-nacl/lib/../lib32/libcrt_common.a(lib_a-fprintf.o)
                0x0000000000036020                fprintf
                0x00000000000360a0                _fprintf_r
 .text          0x0000000000036100      0x100 /home/tx/workspace/nacl_sdk/pepper_29/toolchain/linux_x86_newlib/bin/../lib/gcc/x86_64-nacl/4.4.3/../../../../x86_64-nacl/lib/../lib32/libcrt_common.a(lib_a-init.o)
                0x0000000000036100                __libc_init_array
 .text          0x0000000000036200     0x48a0 /home/tx/workspace/nacl_sdk/pepper_29/toolchain/linux_x86_newlib/bin/../lib/gcc/x86_64-nacl/4.4.3/../../../../x86_64-nacl/lib/../lib32/libcrt_common.a(lib_a-vfprintf.o)
                0x0000000000036200                _vfprintf_r
                0x000000000003aa40                vfprintf
 .text          0x000000000003aaa0     0x2260 /home/tx/workspace/nacl_sdk/pepper_29/toolchain/linux_x86_newlib/bin/../lib/gcc/x86_64-nacl/4.4.3/../../../../x86_64-nacl/lib/../lib32/libcrt_common.a(lib_a-dtoa.o)
                0x000000000003adc0                _dtoa_r
 .text          0x000000000003cd00     0x1840 /home/tx/workspace/nacl_sdk/pepper_29/toolchain/linux_x86_newlib/bin/../lib/gcc/x86_64-nacl/4.4.3/../../../../x86_64-nacl/lib/../lib32/libcrt_common.a(lib_a-mprec.o)
                0x000000000003cd00                _Bfree
                0x000000000003cd40                __hi0bits
                0x000000000003ce00                __lo0bits
                0x000000000003cf80                __mcmp
                0x000000000003d020                __ulp
                0x000000000003d100                __b2d
                0x000000000003d280                __ratio
                0x000000000003d320                _mprec_log10
                0x000000000003d380                __copybits
                0x000000000003d440                __any_on
                0x000000000003d560                _Balloc
                0x000000000003d680                __d2b
                0x000000000003d860                __mdiff
                0x000000000003dae0                __lshift
                0x000000000003dca0                __multiply
                0x000000000003dfa0                __i2b
                0x000000000003dfe0                __multadd
                0x000000000003e120                __pow5mult
                0x000000000003e360                __s2b
 .text          0x000000000003e540      0x140 /home/tx/workspace/nacl_sdk/pepper_29/toolchain/linux_x86_newlib/bin/../lib/gcc/x86_64-nacl/4.4.3/../../../../x86_64-nacl/lib/../lib32/libcrt_common.a(lib_a-s_fpclassify.o)
                0x000000000003e540                __fpclassifyd
 .text          0x000000000003e680       0xe0 /home/tx/workspace/nacl_sdk/pepper_29/toolchain/linux_x86_newlib/bin/../lib/gcc/x86_64-nacl/4.4.3/../../../../x86_64-nacl/lib/../lib32/libcrt_common.a(lib_a-s_frexp.o)
                0x000000000003e680                frexp
 .text          0x000000000003e760      0x1e0 /home/tx/workspace/nacl_sdk/pepper_29/toolchain/linux_x86_newlib/bin/../lib/gcc/x86_64-nacl/4.4.3/32/libgcc.a(_udivdi3.o)
                0x000000000003e760                __udivdi3
 .text          0x000000000003e940      0x240 /home/tx/workspace/nacl_sdk/pepper_29/toolchain/linux_x86_newlib/bin/../lib/gcc/x86_64-nacl/4.4.3/32/libgcc.a(_umoddi3.o)
                0x000000000003e940                __umoddi3
 .text          0x000000000003eb80       0x80 /home/tx/workspace/nacl_sdk/pepper_29/toolchain/linux_x86_newlib/bin/../lib/gcc/x86_64-nacl/4.4.3/32/crtend.o
 .text          0x000000000003ec00        0x0 /home/tx/workspace/nacl_sdk/pepper_29/toolchain/linux_x86_newlib/bin/../lib/gcc/x86_64-nacl/4.4.3/../../../../x86_64-nacl/lib/../lib32/crtn.o
 *(.gnu.warning)

.fini           0x000000000003ec00       0x60
 *(.fini)
 .fini          0x000000000003ec00       0x20 /home/tx/workspace/nacl_sdk/pepper_29/toolchain/linux_x86_newlib/bin/../lib/gcc/x86_64-nacl/4.4.3/../../../../x86_64-nacl/lib/../lib32/crti.o
                0x000000000003ec00                _fini
 .fini          0x000000000003ec20       0x20 /home/tx/workspace/nacl_sdk/pepper_29/toolchain/linux_x86_newlib/bin/../lib/gcc/x86_64-nacl/4.4.3/32/crtbegin.o
 .fini          0x000000000003ec40       0x20 /home/tx/workspace/nacl_sdk/pepper_29/toolchain/linux_x86_newlib/bin/../lib/gcc/x86_64-nacl/4.4.3/../../../../x86_64-nacl/lib/../lib32/crtn.o
                0x000000000003ec60                PROVIDE (__etext, .)
                0x000000000003ec60                PROVIDE (_etext, .)
                0x000000000003ec60                PROVIDE (etext, .)
                0x000000000003ec80                . = (. + 0x20)
                0x0000000010020000                . = DEFINED (__nacl_rodata_after_text)?.:0x10020000
                0x0000000010020000                . = ALIGN (0x10000)

.note.gnu.build-id
                0x0000000010020000       0x24
                0x0000000010020000                PROVIDE (__note_gnu_build_id_start, .)
 *(.note.gnu.build-id)
 .note.gnu.build-id
                0x0000000010020000       0x24 /home/tx/workspace/nacl_sdk/pepper_29/toolchain/linux_x86_newlib/bin/../lib/gcc/x86_64-nacl/4.4.3/../../../../x86_64-nacl/lib/../lib32/crti.o
                0x0000000010020024                PROVIDE (__note_gnu_build_id_end, .)

.rodata         0x0000000010020040      0xf98
 *(.rodata .rodata.* .gnu.linkonce.r.*)
 .rodata        0x0000000010020040       0x7b newlib/Debug/tmp_x86_32.o
 *fill*         0x00000000100200bb        0x1 00
 .rodata        0x00000000100200bc        0xc /home/tx/workspace/nacl_sdk/pepper_29/toolchain/linux_x86_newlib/bin/../lib/gcc/x86_64-nacl/4.4.3/../../../../x86_64-nacl/lib/../lib32/libppapi_stub.a(ppapi_plugin_main.o)
 .rodata.str1.4
                0x00000000100200c8       0x99 /home/tx/workspace/nacl_sdk/pepper_29/toolchain/linux_x86_newlib/bin/../lib/gcc/x86_64-nacl/4.4.3/../../../../x86_64-nacl/lib/../lib32/libppapi_stub.a(ppapi_plugin_start.o)
 .rodata.str1.1
                0x0000000010020161       0x17 /home/tx/workspace/nacl_sdk/pepper_29/toolchain/linux_x86_newlib/bin/../lib/gcc/x86_64-nacl/4.4.3/../../../../x86_64-nacl/lib/../lib32/libppapi_stub.a(ppapi_plugin_start.o)
 .rodata        0x0000000010020178        0x8 /home/tx/workspace/nacl_sdk/pepper_29/toolchain/linux_x86_newlib/bin/../lib/gcc/x86_64-nacl/4.4.3/../../../../x86_64-nacl/lib/../lib32/libppapi_stub.a(thread_creator.o)
 .rodata.str1.1
                0x0000000010020180        0xc /home/tx/workspace/nacl_sdk/pepper_29/toolchain/linux_x86_newlib/bin/../lib/gcc/x86_64-nacl/4.4.3/../../../../x86_64-nacl/lib/../lib32/libpthread.a(nc_thread.o)
 .rodata        0x000000001002018c        0x4 /home/tx/workspace/nacl_sdk/pepper_29/toolchain/linux_x86_newlib/bin/../lib/gcc/x86_64-nacl/4.4.3/../../../../x86_64-nacl/lib/../lib32/libpthread.a(nc_thread.o)
                0x000000001002018c                __nc_kMaxCachedMemoryBlocks
 .rodata.str1.1
                0x0000000010020190       0x4a /home/tx/workspace/nacl_sdk/pepper_29/toolchain/linux_x86_newlib/bin/../lib/gcc/x86_64-nacl/4.4.3/../../../../x86_64-nacl/lib/../lib32/libpthread.a(nc_init_irt.o)
 .rodata.str1.1
                0x00000000100201da       0x14 /home/tx/workspace/nacl_sdk/pepper_29/toolchain/linux_x86_newlib/bin/../lib/gcc/x86_64-nacl/4.4.3/../../../../x86_64-nacl/lib/../lib32/libpthread.a(dynamic_annotations.o)
                                         0x16 (size before relaxing)
 .rodata.str1.1
                0x00000000100201ee       0x23 /home/tx/workspace/nacl_sdk/pepper_29/toolchain/linux_x86_newlib/bin/../lib/gcc/x86_64-nacl/4.4.3/../../../../x86_64-nacl/lib/../lib32/libpthread.a(futex.o)
 .rodata        0x0000000010020211       0x47 /home/tx/workspace/nacl_sdk/pepper_29/toolchain/linux_x86_newlib/bin/../lib/gcc/x86_64-nacl/4.4.3/../../../../x86_64-nacl/lib/../lib32/libpthread.a(futex.o)
 .rodata.str1.1
                0x0000000010020258        0xd /home/tx/workspace/nacl_sdk/pepper_29/toolchain/linux_x86_newlib/bin/../lib/gcc/x86_64-nacl/4.4.3/../../../../x86_64-nacl/lib/../lib32/libcrt_common.a(lib_a-assert.o)
                                          0xe (size before relaxing)
 *fill*         0x0000000010020265        0x3 00
 .rodata.str1.4
                0x0000000010020268       0x2f /home/tx/workspace/nacl_sdk/pepper_29/toolchain/linux_x86_newlib/bin/../lib/gcc/x86_64-nacl/4.4.3/../../../../x86_64-nacl/lib/../lib32/libcrt_common.a(lib_a-assert.o)
 *fill*         0x0000000010020297        0x1 00
 .rodata        0x0000000010020298        0x4 /home/tx/workspace/nacl_sdk/pepper_29/toolchain/linux_x86_newlib/bin/../lib/gcc/x86_64-nacl/4.4.3/../../../../x86_64-nacl/lib/../lib32/libcrt_common.a(lib_a-impure.o)
                0x0000000010020298                _global_impure_ptr
 .rodata.str1.1
                0x0000000000000000        0xd /home/tx/workspace/nacl_sdk/pepper_29/toolchain/linux_x86_newlib/bin/../lib/gcc/x86_64-nacl/4.4.3/../../../../x86_64-nacl/lib/../lib32/libcrt_common.a(lib_a-impure.o)
                                          0x2 (size before relaxing)
 .rodata.str1.1
                0x000000001002029c       0x29 /home/tx/workspace/nacl_sdk/pepper_29/toolchain/linux_x86_newlib/bin/../lib/gcc/x86_64-nacl/4.4.3/../../../../x86_64-nacl/lib/../lib32/libcrt_common.a(lib_a-vfiprintf.o)
 *fill*         0x00000000100202c5        0x3 00
 .rodata        0x00000000100202c8      0x18c /home/tx/workspace/nacl_sdk/pepper_29/toolchain/linux_x86_newlib/bin/../lib/gcc/x86_64-nacl/4.4.3/../../../../x86_64-nacl/lib/../lib32/libcrt_common.a(lib_a-vfiprintf.o)
 .rodata.str1.1
                0x0000000010020454       0xea /home/tx/workspace/nacl_sdk/pepper_29/toolchain/linux_x86_newlib/bin/../lib/gcc/x86_64-nacl/4.4.3/../../../../x86_64-nacl/lib/../lib32/libcrt_common.a(lib_a-locale.o)
                                         0xf4 (size before relaxing)
 *fill*         0x000000001002053e        0x2 00
 .rodata        0x0000000010020540       0xf0 /home/tx/workspace/nacl_sdk/pepper_29/toolchain/linux_x86_newlib/bin/../lib/gcc/x86_64-nacl/4.4.3/../../../../x86_64-nacl/lib/../lib32/libcrt_common.a(lib_a-locale.o)
 *fill*         0x0000000010020630       0x10 00
 .rodata        0x0000000010020640      0x260 /home/tx/workspace/nacl_sdk/pepper_29/toolchain/linux_x86_newlib/bin/../lib/gcc/x86_64-nacl/4.4.3/../../../../x86_64-nacl/lib/../lib32/libcrt_common.a(lib_a-mbtowc_r.o)
 .rodata        0x00000000100208a0      0x2a0 /home/tx/workspace/nacl_sdk/pepper_29/toolchain/linux_x86_newlib/bin/../lib/gcc/x86_64-nacl/4.4.3/../../../../x86_64-nacl/lib/../lib32/libcrt_common.a(lib_a-ctype_.o)
                0x00000000100208a0                _ctype_
 .rodata.str1.4
                0x0000000010020b40       0x58 /home/tx/workspace/nacl_sdk/pepper_29/toolchain/linux_x86_newlib/bin/../lib/gcc/x86_64-nacl/4.4.3/../../../../x86_64-nacl/lib/../lib32/libnacl.a(nacl_irt.o)
 .rodata.str1.1
                0x0000000010020b98       0xa0 /home/tx/workspace/nacl_sdk/pepper_29/toolchain/linux_x86_newlib/bin/../lib/gcc/x86_64-nacl/4.4.3/../../../../x86_64-nacl/lib/../lib32/libnacl.a(nacl_irt.o)
 .rodata.str1.1
                0x0000000010020c38       0x4e /home/tx/workspace/nacl_sdk/pepper_29/toolchain/linux_x86_newlib/bin/../lib/gcc/x86_64-nacl/4.4.3/../../../../x86_64-nacl/lib/../lib32/libnacl.a(malloc.o)
 .rodata.str1.1
                0x0000000010020c86       0x10 /home/tx/workspace/nacl_sdk/pepper_29/toolchain/linux_x86_newlib/bin/../lib/gcc/x86_64-nacl/4.4.3/../../../../x86_64-nacl/lib/../lib32/libcrt_common.a(lib_a-vfprintf.o)
                                         0x3b (size before relaxing)
 *fill*         0x0000000010020c96        0x2 00
 .rodata        0x0000000010020c98      0x18c /home/tx/workspace/nacl_sdk/pepper_29/toolchain/linux_x86_newlib/bin/../lib/gcc/x86_64-nacl/4.4.3/../../../../x86_64-nacl/lib/../lib32/libcrt_common.a(lib_a-vfprintf.o)
 .rodata.cst4   0x0000000010020e24        0xc /home/tx/workspace/nacl_sdk/pepper_29/toolchain/linux_x86_newlib/bin/../lib/gcc/x86_64-nacl/4.4.3/../../../../x86_64-nacl/lib/../lib32/libcrt_common.a(lib_a-vfprintf.o)
 .rodata.str1.1
                0x0000000010020e30        0xd /home/tx/workspace/nacl_sdk/pepper_29/toolchain/linux_x86_newlib/bin/../lib/gcc/x86_64-nacl/4.4.3/../../../../x86_64-nacl/lib/../lib32/libcrt_common.a(lib_a-dtoa.o)
                                          0xf (size before relaxing)
 *fill*         0x0000000010020e3d        0x3 00
 .rodata.cst4   0x0000000010020e40       0x14 /home/tx/workspace/nacl_sdk/pepper_29/toolchain/linux_x86_newlib/bin/../lib/gcc/x86_64-nacl/4.4.3/../../../../x86_64-nacl/lib/../lib32/libcrt_common.a(lib_a-dtoa.o)
                                         0x18 (size before relaxing)
 *fill*         0x0000000010020e54        0x4 00
 .rodata.cst8   0x0000000010020e58       0x18 /home/tx/workspace/nacl_sdk/pepper_29/toolchain/linux_x86_newlib/bin/../lib/gcc/x86_64-nacl/4.4.3/../../../../x86_64-nacl/lib/../lib32/libcrt_common.a(lib_a-dtoa.o)
 *fill*         0x0000000010020e70       0x10 00
 .rodata        0x0000000010020e80      0x154 /home/tx/workspace/nacl_sdk/pepper_29/toolchain/linux_x86_newlib/bin/../lib/gcc/x86_64-nacl/4.4.3/../../../../x86_64-nacl/lib/../lib32/libcrt_common.a(lib_a-mprec.o)
                0x0000000010020e80                __mprec_tens
                0x0000000010020f60                __mprec_bigtens
                0x0000000010020fa0                __mprec_tinytens
 .rodata.cst4   0x0000000000000000        0x4 /home/tx/workspace/nacl_sdk/pepper_29/toolchain/linux_x86_newlib/bin/../lib/gcc/x86_64-nacl/4.4.3/../../../../x86_64-nacl/lib/../lib32/libcrt_common.a(lib_a-mprec.o)
 .rodata.cst4   0x0000000010020fd4        0x4 /home/tx/workspace/nacl_sdk/pepper_29/toolchain/linux_x86_newlib/bin/../lib/gcc/x86_64-nacl/4.4.3/../../../../x86_64-nacl/lib/../lib32/libcrt_common.a(lib_a-s_frexp.o)

.rodata1
 *(.rodata1)

.nacl_rpc_methods
 *(.nacl_rpc_methods)

.eh_frame_hdr   0x0000000010020fd8      0x524
 *(.eh_frame_hdr)
 .eh_frame_hdr  0x0000000010020fd8      0x524 /home/tx/workspace/nacl_sdk/pepper_29/toolchain/linux_x86_newlib/bin/../lib/gcc/x86_64-nacl/4.4.3/../../../../x86_64-nacl/lib/../lib32/libppapi_stub.a(plugin_main_irt.o)

.eh_frame       0x00000000100214fc      0xfc0
 *(.eh_frame)
 .eh_frame      0x00000000100214fc        0x0 /home/tx/workspace/nacl_sdk/pepper_29/toolchain/linux_x86_newlib/bin/../lib/gcc/x86_64-nacl/4.4.3/32/crtbegin.o
 .eh_frame      0x00000000100214fc       0x34 /home/tx/workspace/nacl_sdk/pepper_29/toolchain/linux_x86_newlib/bin/../lib/gcc/x86_64-nacl/4.4.3/../../../../x86_64-nacl/lib/../lib32/libppapi_stub.a(plugin_main_irt.o)
 .eh_frame      0x0000000010021530       0x14 /home/tx/workspace/nacl_sdk/pepper_29/toolchain/linux_x86_newlib/bin/../lib/gcc/x86_64-nacl/4.4.3/../../../../x86_64-nacl/lib/../lib32/libppapi_stub.a(ppapi_plugin_main.o)
                                         0x2c (size before relaxing)
 .eh_frame      0x0000000010021544       0x38 /home/tx/workspace/nacl_sdk/pepper_29/toolchain/linux_x86_newlib/bin/../lib/gcc/x86_64-nacl/4.4.3/../../../../x86_64-nacl/lib/../lib32/libppapi_stub.a(ppapi_plugin_start.o)
                                         0x50 (size before relaxing)
 .eh_frame      0x000000001002157c       0x3c /home/tx/workspace/nacl_sdk/pepper_29/toolchain/linux_x86_newlib/bin/../lib/gcc/x86_64-nacl/4.4.3/../../../../x86_64-nacl/lib/../lib32/libppapi_stub.a(thread_creator.o)
                                         0x54 (size before relaxing)
 .eh_frame      0x00000000100215b8      0x398 /home/tx/workspace/nacl_sdk/pepper_29/toolchain/linux_x86_newlib/bin/../lib/gcc/x86_64-nacl/4.4.3/../../../../x86_64-nacl/lib/../lib32/libpthread.a(nc_thread.o)
                                        0x3b0 (size before relaxing)
 .eh_frame      0x0000000010021950      0x110 /home/tx/workspace/nacl_sdk/pepper_29/toolchain/linux_x86_newlib/bin/../lib/gcc/x86_64-nacl/4.4.3/../../../../x86_64-nacl/lib/../lib32/libpthread.a(nc_mutex.o)
                                        0x128 (size before relaxing)
 .eh_frame      0x0000000010021a60       0x98 /home/tx/workspace/nacl_sdk/pepper_29/toolchain/linux_x86_newlib/bin/../lib/gcc/x86_64-nacl/4.4.3/../../../../x86_64-nacl/lib/../lib32/libpthread.a(nc_condvar.o)
                                         0xb0 (size before relaxing)
 .eh_frame      0x0000000010021af8       0x14 /home/tx/workspace/nacl_sdk/pepper_29/toolchain/linux_x86_newlib/bin/../lib/gcc/x86_64-nacl/4.4.3/../../../../x86_64-nacl/lib/../lib32/libpthread.a(nc_init_irt.o)
                                         0x2c (size before relaxing)
 .eh_frame      0x0000000010021b0c      0x300 /home/tx/workspace/nacl_sdk/pepper_29/toolchain/linux_x86_newlib/bin/../lib/gcc/x86_64-nacl/4.4.3/../../../../x86_64-nacl/lib/../lib32/libpthread.a(dynamic_annotations.o)
                                        0x318 (size before relaxing)
 .eh_frame      0x0000000010021e0c       0x74 /home/tx/workspace/nacl_sdk/pepper_29/toolchain/linux_x86_newlib/bin/../lib/gcc/x86_64-nacl/4.4.3/../../../../x86_64-nacl/lib/../lib32/libpthread.a(futex.o)
                                         0x8c (size before relaxing)
 .eh_frame      0x0000000010021e80       0x60 /home/tx/workspace/nacl_sdk/pepper_29/toolchain/linux_x86_newlib/bin/../lib/gcc/x86_64-nacl/4.4.3/../../../../x86_64-nacl/lib/../lib32/libnacl.a(nacl_irt.o)
                                         0x78 (size before relaxing)
 .eh_frame      0x0000000010021ee0       0x1c /home/tx/workspace/nacl_sdk/pepper_29/toolchain/linux_x86_newlib/bin/../lib/gcc/x86_64-nacl/4.4.3/../../../../x86_64-nacl/lib/../lib32/libnacl.a(close.o)
                                         0x34 (size before relaxing)
 .eh_frame      0x0000000010021efc       0x14 /home/tx/workspace/nacl_sdk/pepper_29/toolchain/linux_x86_newlib/bin/../lib/gcc/x86_64-nacl/4.4.3/../../../../x86_64-nacl/lib/../lib32/libnacl.a(_exit.o)
                                         0x2c (size before relaxing)
 .eh_frame      0x0000000010021f10       0x1c /home/tx/workspace/nacl_sdk/pepper_29/toolchain/linux_x86_newlib/bin/../lib/gcc/x86_64-nacl/4.4.3/../../../../x86_64-nacl/lib/../lib32/libnacl.a(fstat.o)
                                         0x34 (size before relaxing)
 .eh_frame      0x0000000010021f2c       0x1c /home/tx/workspace/nacl_sdk/pepper_29/toolchain/linux_x86_newlib/bin/../lib/gcc/x86_64-nacl/4.4.3/../../../../x86_64-nacl/lib/../lib32/libnacl.a(lseek.o)
                                         0x34 (size before relaxing)
 .eh_frame      0x0000000010021f48      0x3b0 /home/tx/workspace/nacl_sdk/pepper_29/toolchain/linux_x86_newlib/bin/../lib/gcc/x86_64-nacl/4.4.3/../../../../x86_64-nacl/lib/../lib32/libnacl.a(malloc.o)
                                        0x3c8 (size before relaxing)
 .eh_frame      0x00000000100222f8       0x1c /home/tx/workspace/nacl_sdk/pepper_29/toolchain/linux_x86_newlib/bin/../lib/gcc/x86_64-nacl/4.4.3/../../../../x86_64-nacl/lib/../lib32/libnacl.a(mmap.o)
                                         0x34 (size before relaxing)
 .eh_frame      0x0000000010022314       0x1c /home/tx/workspace/nacl_sdk/pepper_29/toolchain/linux_x86_newlib/bin/../lib/gcc/x86_64-nacl/4.4.3/../../../../x86_64-nacl/lib/../lib32/libnacl.a(munmap.o)
                                         0x34 (size before relaxing)
 .eh_frame      0x0000000010022330       0x14 /home/tx/workspace/nacl_sdk/pepper_29/toolchain/linux_x86_newlib/bin/../lib/gcc/x86_64-nacl/4.4.3/../../../../x86_64-nacl/lib/../lib32/libnacl.a(nacl_read_tp.o)
                                         0x2c (size before relaxing)
 .eh_frame      0x0000000010022344       0x1c /home/tx/workspace/nacl_sdk/pepper_29/toolchain/linux_x86_newlib/bin/../lib/gcc/x86_64-nacl/4.4.3/../../../../x86_64-nacl/lib/../lib32/libnacl.a(read.o)
                                         0x34 (size before relaxing)
 .eh_frame      0x0000000010022360       0x1c /home/tx/workspace/nacl_sdk/pepper_29/toolchain/linux_x86_newlib/bin/../lib/gcc/x86_64-nacl/4.4.3/../../../../x86_64-nacl/lib/../lib32/libnacl.a(pthread_initialize_minimal.o)
                                         0x34 (size before relaxing)
 .eh_frame      0x000000001002237c       0x1c /home/tx/workspace/nacl_sdk/pepper_29/toolchain/linux_x86_newlib/bin/../lib/gcc/x86_64-nacl/4.4.3/../../../../x86_64-nacl/lib/../lib32/libnacl.a(sbrk.o)
                                         0x34 (size before relaxing)
 .eh_frame      0x0000000010022398       0x1c /home/tx/workspace/nacl_sdk/pepper_29/toolchain/linux_x86_newlib/bin/../lib/gcc/x86_64-nacl/4.4.3/../../../../x86_64-nacl/lib/../lib32/libnacl.a(sched_yield.o)
                                         0x34 (size before relaxing)
 .eh_frame      0x00000000100223b4       0x20 /home/tx/workspace/nacl_sdk/pepper_29/toolchain/linux_x86_newlib/bin/../lib/gcc/x86_64-nacl/4.4.3/../../../../x86_64-nacl/lib/../lib32/libnacl.a(start.o)
                                         0x38 (size before relaxing)
 .eh_frame      0x00000000100223d4       0x1c /home/tx/workspace/nacl_sdk/pepper_29/toolchain/linux_x86_newlib/bin/../lib/gcc/x86_64-nacl/4.4.3/../../../../x86_64-nacl/lib/../lib32/libnacl.a(sysconf.o)
                                         0x34 (size before relaxing)
 .eh_frame      0x00000000100223f0       0x58 /home/tx/workspace/nacl_sdk/pepper_29/toolchain/linux_x86_newlib/bin/../lib/gcc/x86_64-nacl/4.4.3/../../../../x86_64-nacl/lib/../lib32/libnacl.a(tls.o)
                                         0x70 (size before relaxing)
 .eh_frame      0x0000000010022448       0x1c /home/tx/workspace/nacl_sdk/pepper_29/toolchain/linux_x86_newlib/bin/../lib/gcc/x86_64-nacl/4.4.3/../../../../x86_64-nacl/lib/../lib32/libnacl.a(write.o)
                                         0x34 (size before relaxing)
 .eh_frame      0x0000000010022464       0x14 /home/tx/workspace/nacl_sdk/pepper_29/toolchain/linux_x86_newlib/bin/../lib/gcc/x86_64-nacl/4.4.3/../../../../x86_64-nacl/lib/../lib32/libnacl.a(nacl_tls_init.o)
                                         0x2c (size before relaxing)
 .eh_frame      0x0000000010022478       0x20 /home/tx/workspace/nacl_sdk/pepper_29/toolchain/linux_x86_newlib/bin/../lib/gcc/x86_64-nacl/4.4.3/32/libgcc.a(_udivdi3.o)
                                         0x38 (size before relaxing)
 .eh_frame      0x0000000010022498       0x20 /home/tx/workspace/nacl_sdk/pepper_29/toolchain/linux_x86_newlib/bin/../lib/gcc/x86_64-nacl/4.4.3/32/libgcc.a(_umoddi3.o)
                                         0x38 (size before relaxing)
 .eh_frame      0x00000000100224b8        0x4 /home/tx/workspace/nacl_sdk/pepper_29/toolchain/linux_x86_newlib/bin/../lib/gcc/x86_64-nacl/4.4.3/32/crtend.o

.gcc_except_table
 *(.gcc_except_table .gcc_except_table.*)
                0x00000000100224bc                . = (ALIGN (0x10000) - ((0x10000 - .) & 0xffff))
                0x0000000010030000                . = (0x10000 DATA_SEGMENT_ALIGN 0x10000)

.eh_frame
 *(.eh_frame)

.gcc_except_table
 *(.gcc_except_table .gcc_except_table.*)

.tdata          0x0000000010030000      0x460
                0x0000000010030000                PROVIDE (__tls_template_start, .)
 *(.tdata .tdata.* .gnu.linkonce.td.*)
 .tdata         0x0000000010030000      0x460 /home/tx/workspace/nacl_sdk/pepper_29/toolchain/linux_x86_newlib/bin/../lib/gcc/x86_64-nacl/4.4.3/../../../../x86_64-nacl/lib/../lib32/libcrt_common.a(lib_a-impure.o)
                0x0000000010030000                _impure_ptr
                0x0000000010030460                . = ALIGN (0x20)
                0x0000000010030460                PROVIDE (__tls_template_tdata_end, .)

.tbss           0x0000000010030460       0x20
 *(.tbss .tbss.* .gnu.linkonce.tb.*)
 .tbss          0x0000000010030460        0x8 /home/tx/workspace/nacl_sdk/pepper_29/toolchain/linux_x86_newlib/bin/../lib/gcc/x86_64-nacl/4.4.3/../../../../x86_64-nacl/lib/../lib32/libpthread.a(nc_thread.o)
 .tbss          0x0000000010030468       0x14 /home/tx/workspace/nacl_sdk/pepper_29/toolchain/linux_x86_newlib/bin/../lib/gcc/x86_64-nacl/4.4.3/../../../../x86_64-nacl/lib/../lib32/libpthread.a(futex.o)
 *(.tcommon)
                0x0000000010030480                . = ALIGN (0x20)
 *fill*         0x000000001003047c        0x4 00
                0x00000000100304a0                PROVIDE (__tls_template_end, (. + SIZEOF (.tbss)))

.preinit_array  0x0000000010030460        0x0
                0x0000000010030460                PROVIDE (__preinit_array_start, .)
 *(.preinit_array)
                0x0000000010030460                PROVIDE (__preinit_array_end, .)

.init_array     0x0000000010030460        0x0
                0x0000000010030460                PROVIDE (__init_array_start, .)
 *(SORT(.init_array.*))
 *(.init_array)
                0x0000000010030460                PROVIDE (__init_array_end, .)

.fini_array     0x0000000010030460        0x0
                0x0000000010030460                PROVIDE (__fini_array_start, .)
 *(.fini_array)
 *(SORT(.fini_array.*))
                0x0000000010030460                PROVIDE (__fini_array_end, .)

.ctors          0x0000000010030460        0x8
 *crtbegin.o(.ctors)
 .ctors         0x0000000010030460        0x4 /home/tx/workspace/nacl_sdk/pepper_29/toolchain/linux_x86_newlib/bin/../lib/gcc/x86_64-nacl/4.4.3/32/crtbegin.o
 *crtbegin?.o(.ctors)
 *(EXCLUDE_FILE(*crtend?.o *crtend.o) .ctors)
 *(SORT(.ctors.*))
 *(.ctors)
 .ctors         0x0000000010030464        0x4 /home/tx/workspace/nacl_sdk/pepper_29/toolchain/linux_x86_newlib/bin/../lib/gcc/x86_64-nacl/4.4.3/32/crtend.o

.dtors          0x0000000010030468        0x8
 *crtbegin.o(.dtors)
 .dtors         0x0000000010030468        0x4 /home/tx/workspace/nacl_sdk/pepper_29/toolchain/linux_x86_newlib/bin/../lib/gcc/x86_64-nacl/4.4.3/32/crtbegin.o
 *crtbegin?.o(.dtors)
 *(EXCLUDE_FILE(*crtend?.o *crtend.o) .dtors)
 *(SORT(.dtors.*))
 *(.dtors)
 .dtors         0x000000001003046c        0x4 /home/tx/workspace/nacl_sdk/pepper_29/toolchain/linux_x86_newlib/bin/../lib/gcc/x86_64-nacl/4.4.3/32/crtend.o
                0x000000001003046c                __DTOR_END__

.jcr            0x0000000010030470        0x4
 *(.jcr)
 .jcr           0x0000000010030470        0x0 /home/tx/workspace/nacl_sdk/pepper_29/toolchain/linux_x86_newlib/bin/../lib/gcc/x86_64-nacl/4.4.3/32/crtbegin.o
 .jcr           0x0000000010030470        0x4 /home/tx/workspace/nacl_sdk/pepper_29/toolchain/linux_x86_newlib/bin/../lib/gcc/x86_64-nacl/4.4.3/32/crtend.o

.data.rel.ro
 *(.data.rel.ro.local* .gnu.linkonce.d.rel.ro.local.*)
 *(.data.rel.ro* .gnu.linkonce.d.rel.ro.*)

.dynamic
 *(.dynamic)

.got            0x0000000010030474        0x0
 *(.got)
 .got           0x0000000000000000        0x0 /home/tx/workspace/nacl_sdk/pepper_29/toolchain/linux_x86_newlib/bin/../lib/gcc/x86_64-nacl/4.4.3/32/crtbegin.o
 *(.igot)
                0x0000000010030474                . = (. DATA_SEGMENT_RELRO_END 0xc)
                0x0000000010040000                . = ALIGN (0x10000)

.got.plt        0x0000000010040000        0xc
 *(.got.plt)
 .got.plt       0x0000000010040000        0xc /home/tx/workspace/nacl_sdk/pepper_29/toolchain/linux_x86_newlib/bin/../lib/gcc/x86_64-nacl/4.4.3/32/crtbegin.o
                0x0000000010040000                _GLOBAL_OFFSET_TABLE_
 *(.igot.plt)
 .igot.plt      0x0000000000000000        0x0 /home/tx/workspace/nacl_sdk/pepper_29/toolchain/linux_x86_newlib/bin/../lib/gcc/x86_64-nacl/4.4.3/32/crtbegin.o

.data           0x0000000010040020      0x69c
 *(.data .data.* .gnu.linkonce.d.*)
 .data          0x0000000010040020        0x0 /home/tx/workspace/nacl_sdk/pepper_29/toolchain/linux_x86_newlib/bin/../lib/gcc/x86_64-nacl/4.4.3/../../../../x86_64-nacl/lib/../lib32/crti.o
 .data          0x0000000010040020        0x4 /home/tx/workspace/nacl_sdk/pepper_29/toolchain/linux_x86_newlib/bin/../lib/gcc/x86_64-nacl/4.4.3/32/crtbegin.o
                0x0000000010040020                __dso_handle
 .data          0x0000000010040024       0x18 newlib/Debug/tmp_x86_32.o
 .data          0x000000001004003c        0x0 /home/tx/workspace/nacl_sdk/pepper_29/toolchain/linux_x86_newlib/bin/../lib/gcc/x86_64-nacl/4.4.3/../../../../x86_64-nacl/lib/../lib32/libppapi_stub.a(plugin_main_irt.o)
 .data          0x000000001004003c        0x0 /home/tx/workspace/nacl_sdk/pepper_29/toolchain/linux_x86_newlib/bin/../lib/gcc/x86_64-nacl/4.4.3/../../../../x86_64-nacl/lib/../lib32/libppapi_stub.a(ppapi_plugin_main.o)
 .data          0x000000001004003c        0x0 /home/tx/workspace/nacl_sdk/pepper_29/toolchain/linux_x86_newlib/bin/../lib/gcc/x86_64-nacl/4.4.3/../../../../x86_64-nacl/lib/../lib32/libppapi_stub.a(ppapi_plugin_start.o)
 .data          0x000000001004003c        0x0 /home/tx/workspace/nacl_sdk/pepper_29/toolchain/linux_x86_newlib/bin/../lib/gcc/x86_64-nacl/4.4.3/../../../../x86_64-nacl/lib/../lib32/libppapi_stub.a(thread_creator.o)
 .data          0x000000001004003c        0x4 /home/tx/workspace/nacl_sdk/pepper_29/toolchain/linux_x86_newlib/bin/../lib/gcc/x86_64-nacl/4.4.3/../../../../x86_64-nacl/lib/../lib32/libpthread.a(nc_thread.o)
                0x000000001004003c                __nc_running_threads_counter
 .data          0x0000000010040040        0x0 /home/tx/workspace/nacl_sdk/pepper_29/toolchain/linux_x86_newlib/bin/../lib/gcc/x86_64-nacl/4.4.3/../../../../x86_64-nacl/lib/../lib32/libpthread.a(nc_mutex.o)
 .data          0x0000000010040040        0x0 /home/tx/workspace/nacl_sdk/pepper_29/toolchain/linux_x86_newlib/bin/../lib/gcc/x86_64-nacl/4.4.3/../../../../x86_64-nacl/lib/../lib32/libpthread.a(nc_condvar.o)
 .data          0x0000000010040040        0x0 /home/tx/workspace/nacl_sdk/pepper_29/toolchain/linux_x86_newlib/bin/../lib/gcc/x86_64-nacl/4.4.3/../../../../x86_64-nacl/lib/../lib32/libpthread.a(nc_init_irt.o)
 .data          0x0000000010040040        0x4 /home/tx/workspace/nacl_sdk/pepper_29/toolchain/linux_x86_newlib/bin/../lib/gcc/x86_64-nacl/4.4.3/../../../../x86_64-nacl/lib/../lib32/libpthread.a(dynamic_annotations.o)
 .data          0x0000000010040044        0xc /home/tx/workspace/nacl_sdk/pepper_29/toolchain/linux_x86_newlib/bin/../lib/gcc/x86_64-nacl/4.4.3/../../../../x86_64-nacl/lib/../lib32/libpthread.a(futex.o)
 .data          0x0000000010040050        0x0 /home/tx/workspace/nacl_sdk/pepper_29/toolchain/linux_x86_newlib/bin/../lib/gcc/x86_64-nacl/4.4.3/../../../../x86_64-nacl/lib/../lib32/libcrt_common.a(lib_a-assert.o)
 .data          0x0000000010040050        0x4 /home/tx/workspace/nacl_sdk/pepper_29/toolchain/linux_x86_newlib/bin/../lib/gcc/x86_64-nacl/4.4.3/../../../../x86_64-nacl/lib/../lib32/libcrt_common.a(lib_a-environ.o)
                0x0000000010040050                environ
 .data          0x0000000010040054        0x0 /home/tx/workspace/nacl_sdk/pepper_29/toolchain/linux_x86_newlib/bin/../lib/gcc/x86_64-nacl/4.4.3/../../../../x86_64-nacl/lib/../lib32/libcrt_common.a(lib_a-exit.o)
 .data          0x0000000010040054        0x0 /home/tx/workspace/nacl_sdk/pepper_29/toolchain/linux_x86_newlib/bin/../lib/gcc/x86_64-nacl/4.4.3/../../../../x86_64-nacl/lib/../lib32/libcrt_common.a(lib_a-fiprintf.o)
 .data          0x0000000010040054        0x0 /home/tx/workspace/nacl_sdk/pepper_29/toolchain/linux_x86_newlib/bin/../lib/gcc/x86_64-nacl/4.4.3/../../../../x86_64-nacl/lib/../lib32/libcrt_common.a(lib_a-getenv.o)
 .data          0x0000000010040054        0x0 /home/tx/workspace/nacl_sdk/pepper_29/toolchain/linux_x86_newlib/bin/../lib/gcc/x86_64-nacl/4.4.3/../../../../x86_64-nacl/lib/../lib32/libcrt_common.a(lib_a-getenv_r.o)
 *fill*         0x0000000010040054        0xc 00
 .data          0x0000000010040060      0x458 /home/tx/workspace/nacl_sdk/pepper_29/toolchain/linux_x86_newlib/bin/../lib/gcc/x86_64-nacl/4.4.3/../../../../x86_64-nacl/lib/../lib32/libcrt_common.a(lib_a-impure.o)
 .data          0x00000000100404b8        0x0 /home/tx/workspace/nacl_sdk/pepper_29/toolchain/linux_x86_newlib/bin/../lib/gcc/x86_64-nacl/4.4.3/../../../../x86_64-nacl/lib/../lib32/libcrt_common.a(lib_a-memcpy.o)
 .data          0x00000000100404b8        0x0 /home/tx/workspace/nacl_sdk/pepper_29/toolchain/linux_x86_newlib/bin/../lib/gcc/x86_64-nacl/4.4.3/../../../../x86_64-nacl/lib/../lib32/libcrt_common.a(lib_a-strcat.o)
 .data          0x00000000100404b8        0x0 /home/tx/workspace/nacl_sdk/pepper_29/toolchain/linux_x86_newlib/bin/../lib/gcc/x86_64-nacl/4.4.3/../../../../x86_64-nacl/lib/../lib32/libcrt_common.a(lib_a-strcmp.o)
 .data          0x00000000100404b8        0x0 /home/tx/workspace/nacl_sdk/pepper_29/toolchain/linux_x86_newlib/bin/../lib/gcc/x86_64-nacl/4.4.3/../../../../x86_64-nacl/lib/../lib32/libcrt_common.a(lib_a-strcpy.o)
 .data          0x00000000100404b8        0x0 /home/tx/workspace/nacl_sdk/pepper_29/toolchain/linux_x86_newlib/bin/../lib/gcc/x86_64-nacl/4.4.3/../../../../x86_64-nacl/lib/../lib32/libcrt_common.a(lib_a-strlen.o)
 .data          0x00000000100404b8        0x0 /home/tx/workspace/nacl_sdk/pepper_29/toolchain/linux_x86_newlib/bin/../lib/gcc/x86_64-nacl/4.4.3/../../../../x86_64-nacl/lib/../lib32/libcrt_common.a(lib_a-strncmp.o)
 .data          0x00000000100404b8        0x0 /home/tx/workspace/nacl_sdk/pepper_29/toolchain/linux_x86_newlib/bin/../lib/gcc/x86_64-nacl/4.4.3/../../../../x86_64-nacl/lib/../lib32/libcrt_common.a(lib_a-vfiprintf.o)
 .data          0x00000000100404b8        0x0 /home/tx/workspace/nacl_sdk/pepper_29/toolchain/linux_x86_newlib/bin/../lib/gcc/x86_64-nacl/4.4.3/../../../../x86_64-nacl/lib/../lib32/libcrt_common.a(lib_a-wcrtomb.o)
 .data          0x00000000100404b8        0x0 /home/tx/workspace/nacl_sdk/pepper_29/toolchain/linux_x86_newlib/bin/../lib/gcc/x86_64-nacl/4.4.3/../../../../x86_64-nacl/lib/../lib32/libcrt_common.a(lib_a-wcsrtombs.o)
 .data          0x00000000100404b8        0x4 /home/tx/workspace/nacl_sdk/pepper_29/toolchain/linux_x86_newlib/bin/../lib/gcc/x86_64-nacl/4.4.3/../../../../x86_64-nacl/lib/../lib32/libcrt_common.a(lib_a-wctomb_r.o)
                0x00000000100404b8                __wctomb
 .data          0x00000000100404bc        0x0 /home/tx/workspace/nacl_sdk/pepper_29/toolchain/linux_x86_newlib/bin/../lib/gcc/x86_64-nacl/4.4.3/../../../../x86_64-nacl/lib/../lib32/libcrt_common.a(lib_a-wsetup.o)
 .data          0x00000000100404bc        0x0 /home/tx/workspace/nacl_sdk/pepper_29/toolchain/linux_x86_newlib/bin/../lib/gcc/x86_64-nacl/4.4.3/../../../../x86_64-nacl/lib/../lib32/libcrt_common.a(lib_a-abort.o)
 .data          0x00000000100404bc        0x0 /home/tx/workspace/nacl_sdk/pepper_29/toolchain/linux_x86_newlib/bin/../lib/gcc/x86_64-nacl/4.4.3/../../../../x86_64-nacl/lib/../lib32/libcrt_common.a(lib_a-__call_atexit.o)
 .data          0x00000000100404bc       0x14 /home/tx/workspace/nacl_sdk/pepper_29/toolchain/linux_x86_newlib/bin/../lib/gcc/x86_64-nacl/4.4.3/../../../../x86_64-nacl/lib/../lib32/libcrt_common.a(lib_a-envlock.o)
 .data          0x00000000100404d0        0x0 /home/tx/workspace/nacl_sdk/pepper_29/toolchain/linux_x86_newlib/bin/../lib/gcc/x86_64-nacl/4.4.3/../../../../x86_64-nacl/lib/../lib32/libcrt_common.a(lib_a-fflush.o)
 .data          0x00000000100404d0       0x28 /home/tx/workspace/nacl_sdk/pepper_29/toolchain/linux_x86_newlib/bin/../lib/gcc/x86_64-nacl/4.4.3/../../../../x86_64-nacl/lib/../lib32/libcrt_common.a(lib_a-findfp.o)
 .data          0x00000000100404f8        0x0 /home/tx/workspace/nacl_sdk/pepper_29/toolchain/linux_x86_newlib/bin/../lib/gcc/x86_64-nacl/4.4.3/../../../../x86_64-nacl/lib/../lib32/libcrt_common.a(lib_a-fputwc.o)
 .data          0x00000000100404f8        0x0 /home/tx/workspace/nacl_sdk/pepper_29/toolchain/linux_x86_newlib/bin/../lib/gcc/x86_64-nacl/4.4.3/../../../../x86_64-nacl/lib/../lib32/libcrt_common.a(lib_a-fvwrite.o)
 .data          0x00000000100404f8        0x0 /home/tx/workspace/nacl_sdk/pepper_29/toolchain/linux_x86_newlib/bin/../lib/gcc/x86_64-nacl/4.4.3/../../../../x86_64-nacl/lib/../lib32/libcrt_common.a(lib_a-fwalk.o)
 *fill*         0x00000000100404f8        0x8 00
 .data          0x0000000010040500      0x1a0 /home/tx/workspace/nacl_sdk/pepper_29/toolchain/linux_x86_newlib/bin/../lib/gcc/x86_64-nacl/4.4.3/../../../../x86_64-nacl/lib/../lib32/libcrt_common.a(lib_a-locale.o)
                0x0000000010040500                __mb_cur_max
                0x0000000010040520                __default_locale
 .data          0x00000000100406a0        0x0 /home/tx/workspace/nacl_sdk/pepper_29/toolchain/linux_x86_newlib/bin/../lib/gcc/x86_64-nacl/4.4.3/../../../../x86_64-nacl/lib/../lib32/libcrt_common.a(lib_a-makebuf.o)
 .data          0x00000000100406a0        0x4 /home/tx/workspace/nacl_sdk/pepper_29/toolchain/linux_x86_newlib/bin/../lib/gcc/x86_64-nacl/4.4.3/../../../../x86_64-nacl/lib/../lib32/libcrt_common.a(lib_a-mbtowc_r.o)
                0x00000000100406a0                __mbtowc
 .data          0x00000000100406a4        0x0 /home/tx/workspace/nacl_sdk/pepper_29/toolchain/linux_x86_newlib/bin/../lib/gcc/x86_64-nacl/4.4.3/../../../../x86_64-nacl/lib/../lib32/libcrt_common.a(lib_a-memchr.o)
 .data          0x00000000100406a4        0x0 /home/tx/workspace/nacl_sdk/pepper_29/toolchain/linux_x86_newlib/bin/../lib/gcc/x86_64-nacl/4.4.3/../../../../x86_64-nacl/lib/../lib32/libcrt_common.a(lib_a-memmove.o)
 .data          0x00000000100406a4        0x0 /home/tx/workspace/nacl_sdk/pepper_29/toolchain/linux_x86_newlib/bin/../lib/gcc/x86_64-nacl/4.4.3/../../../../x86_64-nacl/lib/../lib32/libcrt_common.a(lib_a-memset.o)
 .data          0x00000000100406a4        0x0 /home/tx/workspace/nacl_sdk/pepper_29/toolchain/linux_x86_newlib/bin/../lib/gcc/x86_64-nacl/4.4.3/../../../../x86_64-nacl/lib/../lib32/libcrt_common.a(lib_a-stdio.o)
 .data          0x00000000100406a4        0x0 /home/tx/workspace/nacl_sdk/pepper_29/toolchain/linux_x86_newlib/bin/../lib/gcc/x86_64-nacl/4.4.3/../../../../x86_64-nacl/lib/../lib32/libcrt_common.a(lib_a-strcasecmp.o)
 .data          0x00000000100406a4        0x0 /home/tx/workspace/nacl_sdk/pepper_29/toolchain/linux_x86_newlib/bin/../lib/gcc/x86_64-nacl/4.4.3/../../../../x86_64-nacl/lib/../lib32/libcrt_common.a(lib_a-strchr.o)
 .data          0x00000000100406a4        0x0 /home/tx/workspace/nacl_sdk/pepper_29/toolchain/linux_x86_newlib/bin/../lib/gcc/x86_64-nacl/4.4.3/../../../../x86_64-nacl/lib/../lib32/libcrt_common.a(lib_a-strlcpy.o)
 .data          0x00000000100406a4        0x0 /home/tx/workspace/nacl_sdk/pepper_29/toolchain/linux_x86_newlib/bin/../lib/gcc/x86_64-nacl/4.4.3/../../../../x86_64-nacl/lib/../lib32/libcrt_common.a(lib_a-strncasecmp.o)
 .data          0x00000000100406a4        0x0 /home/tx/workspace/nacl_sdk/pepper_29/toolchain/linux_x86_newlib/bin/../lib/gcc/x86_64-nacl/4.4.3/../../../../x86_64-nacl/lib/../lib32/libcrt_common.a(lib_a-strncpy.o)
 .data          0x00000000100406a4        0x0 /home/tx/workspace/nacl_sdk/pepper_29/toolchain/linux_x86_newlib/bin/../lib/gcc/x86_64-nacl/4.4.3/../../../../x86_64-nacl/lib/../lib32/libcrt_common.a(lib_a-strtol.o)
 .data          0x00000000100406a4        0x0 /home/tx/workspace/nacl_sdk/pepper_29/toolchain/linux_x86_newlib/bin/../lib/gcc/x86_64-nacl/4.4.3/../../../../x86_64-nacl/lib/../lib32/libcrt_common.a(lib_a-wbuf.o)
 .data          0x00000000100406a4        0x0 /home/tx/workspace/nacl_sdk/pepper_29/toolchain/linux_x86_newlib/bin/../lib/gcc/x86_64-nacl/4.4.3/../../../../x86_64-nacl/lib/../lib32/libcrt_common.a(lib_a-wcsnrtombs.o)
 .data          0x00000000100406a4        0x0 /home/tx/workspace/nacl_sdk/pepper_29/toolchain/linux_x86_newlib/bin/../lib/gcc/x86_64-nacl/4.4.3/../../../../x86_64-nacl/lib/../lib32/libcrt_common.a(lib_a-writer.o)
 .data          0x00000000100406a4       0x14 /home/tx/workspace/nacl_sdk/pepper_29/toolchain/linux_x86_newlib/bin/../lib/gcc/x86_64-nacl/4.4.3/../../../../x86_64-nacl/lib/../lib32/libcrt_common.a(lib_a-__atexit.o)
                0x00000000100406a4                __atexit_lock
 .data          0x00000000100406b8        0x0 /home/tx/workspace/nacl_sdk/pepper_29/toolchain/linux_x86_newlib/bin/../lib/gcc/x86_64-nacl/4.4.3/../../../../x86_64-nacl/lib/../lib32/libcrt_common.a(lib_a-closer.o)
 .data          0x00000000100406b8        0x4 /home/tx/workspace/nacl_sdk/pepper_29/toolchain/linux_x86_newlib/bin/../lib/gcc/x86_64-nacl/4.4.3/../../../../x86_64-nacl/lib/../lib32/libcrt_common.a(lib_a-ctype_.o)
                0x00000000100406b8                __ctype_ptr__
 .data          0x00000000100406bc        0x0 /home/tx/workspace/nacl_sdk/pepper_29/toolchain/linux_x86_newlib/bin/../lib/gcc/x86_64-nacl/4.4.3/../../../../x86_64-nacl/lib/../lib32/libcrt_common.a(lib_a-fclose.o)
 .data          0x00000000100406bc        0x0 /home/tx/workspace/nacl_sdk/pepper_29/toolchain/linux_x86_newlib/bin/../lib/gcc/x86_64-nacl/4.4.3/../../../../x86_64-nacl/lib/../lib32/libcrt_common.a(lib_a-fstatr.o)
 .data          0x00000000100406bc        0x0 /home/tx/workspace/nacl_sdk/pepper_29/toolchain/linux_x86_newlib/bin/../lib/gcc/x86_64-nacl/4.4.3/../../../../x86_64-nacl/lib/../lib32/libcrt_common.a(lib_a-isattyr.o)
 .data          0x00000000100406bc        0x0 /home/tx/workspace/nacl_sdk/pepper_29/toolchain/linux_x86_newlib/bin/../lib/gcc/x86_64-nacl/4.4.3/../../../../x86_64-nacl/lib/../lib32/libcrt_common.a(lib_a-lseekr.o)
 .data          0x00000000100406bc        0x0 /home/tx/workspace/nacl_sdk/pepper_29/toolchain/linux_x86_newlib/bin/../lib/gcc/x86_64-nacl/4.4.3/../../../../x86_64-nacl/lib/../lib32/libcrt_common.a(lib_a-readr.o)
 .data          0x00000000100406bc        0x0 /home/tx/workspace/nacl_sdk/pepper_29/toolchain/linux_x86_newlib/bin/../lib/gcc/x86_64-nacl/4.4.3/../../../../x86_64-nacl/lib/../lib32/libcrt_common.a(lib_a-reent.o)
 .data          0x00000000100406bc        0x0 /home/tx/workspace/nacl_sdk/pepper_29/toolchain/linux_x86_newlib/bin/../lib/gcc/x86_64-nacl/4.4.3/../../../../x86_64-nacl/lib/../lib32/libcrt_common.a(lib_a-isatty.o)
 .data          0x00000000100406bc        0x0 /home/tx/workspace/nacl_sdk/pepper_29/toolchain/linux_x86_newlib/bin/../lib/gcc/x86_64-nacl/4.4.3/../../../../x86_64-nacl/lib/../lib32/libcrt_common.a(lib_a-_isatty.o)
 .data          0x00000000100406bc        0x0 /home/tx/workspace/nacl_sdk/pepper_29/toolchain/linux_x86_newlib/bin/../lib/gcc/x86_64-nacl/4.4.3/../../../../x86_64-nacl/lib/../lib32/libcrt_common.a(lib_a-errno.o)
 .data          0x00000000100406bc        0x0 /home/tx/workspace/nacl_sdk/pepper_29/toolchain/linux_x86_newlib/bin/../lib/gcc/x86_64-nacl/4.4.3/../../../../x86_64-nacl/lib/../lib32/libnacl.a(nacl_irt.o)
 .data          0x00000000100406bc        0x0 /home/tx/workspace/nacl_sdk/pepper_29/toolchain/linux_x86_newlib/bin/../lib/gcc/x86_64-nacl/4.4.3/../../../../x86_64-nacl/lib/../lib32/libnacl.a(close.o)
 .data          0x00000000100406bc        0x0 /home/tx/workspace/nacl_sdk/pepper_29/toolchain/linux_x86_newlib/bin/../lib/gcc/x86_64-nacl/4.4.3/../../../../x86_64-nacl/lib/../lib32/libnacl.a(_exit.o)
 .data          0x00000000100406bc        0x0 /home/tx/workspace/nacl_sdk/pepper_29/toolchain/linux_x86_newlib/bin/../lib/gcc/x86_64-nacl/4.4.3/../../../../x86_64-nacl/lib/../lib32/libnacl.a(fstat.o)
 .data          0x00000000100406bc        0x0 /home/tx/workspace/nacl_sdk/pepper_29/toolchain/linux_x86_newlib/bin/../lib/gcc/x86_64-nacl/4.4.3/../../../../x86_64-nacl/lib/../lib32/libnacl.a(lseek.o)
 .data          0x00000000100406bc        0x0 /home/tx/workspace/nacl_sdk/pepper_29/toolchain/linux_x86_newlib/bin/../lib/gcc/x86_64-nacl/4.4.3/../../../../x86_64-nacl/lib/../lib32/libnacl.a(malloc.o)
 .data          0x00000000100406bc        0x0 /home/tx/workspace/nacl_sdk/pepper_29/toolchain/linux_x86_newlib/bin/../lib/gcc/x86_64-nacl/4.4.3/../../../../x86_64-nacl/lib/../lib32/libnacl.a(mmap.o)
 .data          0x00000000100406bc        0x0 /home/tx/workspace/nacl_sdk/pepper_29/toolchain/linux_x86_newlib/bin/../lib/gcc/x86_64-nacl/4.4.3/../../../../x86_64-nacl/lib/../lib32/libnacl.a(munmap.o)
 .data          0x00000000100406bc        0x0 /home/tx/workspace/nacl_sdk/pepper_29/toolchain/linux_x86_newlib/bin/../lib/gcc/x86_64-nacl/4.4.3/../../../../x86_64-nacl/lib/../lib32/libnacl.a(nacl_read_tp.o)
 .data          0x00000000100406bc        0x0 /home/tx/workspace/nacl_sdk/pepper_29/toolchain/linux_x86_newlib/bin/../lib/gcc/x86_64-nacl/4.4.3/../../../../x86_64-nacl/lib/../lib32/libnacl.a(read.o)
 .data          0x00000000100406bc        0x0 /home/tx/workspace/nacl_sdk/pepper_29/toolchain/linux_x86_newlib/bin/../lib/gcc/x86_64-nacl/4.4.3/../../../../x86_64-nacl/lib/../lib32/libnacl.a(pthread_initialize_minimal.o)
 .data          0x00000000100406bc        0x0 /home/tx/workspace/nacl_sdk/pepper_29/toolchain/linux_x86_newlib/bin/../lib/gcc/x86_64-nacl/4.4.3/../../../../x86_64-nacl/lib/../lib32/libnacl.a(sbrk.o)
 .data          0x00000000100406bc        0x0 /home/tx/workspace/nacl_sdk/pepper_29/toolchain/linux_x86_newlib/bin/../lib/gcc/x86_64-nacl/4.4.3/../../../../x86_64-nacl/lib/../lib32/libnacl.a(sched_yield.o)
 .data          0x00000000100406bc        0x0 /home/tx/workspace/nacl_sdk/pepper_29/toolchain/linux_x86_newlib/bin/../lib/gcc/x86_64-nacl/4.4.3/../../../../x86_64-nacl/lib/../lib32/libnacl.a(start.o)
 .data          0x00000000100406bc        0x0 /home/tx/workspace/nacl_sdk/pepper_29/toolchain/linux_x86_newlib/bin/../lib/gcc/x86_64-nacl/4.4.3/../../../../x86_64-nacl/lib/../lib32/libnacl.a(sysconf.o)
 .data          0x00000000100406bc        0x0 /home/tx/workspace/nacl_sdk/pepper_29/toolchain/linux_x86_newlib/bin/../lib/gcc/x86_64-nacl/4.4.3/../../../../x86_64-nacl/lib/../lib32/libnacl.a(tls.o)
 .data          0x00000000100406bc        0x0 /home/tx/workspace/nacl_sdk/pepper_29/toolchain/linux_x86_newlib/bin/../lib/gcc/x86_64-nacl/4.4.3/../../../../x86_64-nacl/lib/../lib32/libnacl.a(write.o)
 .data          0x00000000100406bc        0x0 /home/tx/workspace/nacl_sdk/pepper_29/toolchain/linux_x86_newlib/bin/../lib/gcc/x86_64-nacl/4.4.3/../../../../x86_64-nacl/lib/../lib32/libnacl.a(nacl_tls_init.o)
 .data          0x00000000100406bc        0x0 /home/tx/workspace/nacl_sdk/pepper_29/toolchain/linux_x86_newlib/bin/../lib/gcc/x86_64-nacl/4.4.3/../../../../x86_64-nacl/lib/../lib32/libcrt_common.a(lib_a-atexit.o)
 .data          0x00000000100406bc        0x0 /home/tx/workspace/nacl_sdk/pepper_29/toolchain/linux_x86_newlib/bin/../lib/gcc/x86_64-nacl/4.4.3/../../../../x86_64-nacl/lib/../lib32/libcrt_common.a(lib_a-fini.o)
 .data          0x00000000100406bc        0x0 /home/tx/workspace/nacl_sdk/pepper_29/toolchain/linux_x86_newlib/bin/../lib/gcc/x86_64-nacl/4.4.3/../../../../x86_64-nacl/lib/../lib32/libcrt_common.a(lib_a-fprintf.o)
 .data          0x00000000100406bc        0x0 /home/tx/workspace/nacl_sdk/pepper_29/toolchain/linux_x86_newlib/bin/../lib/gcc/x86_64-nacl/4.4.3/../../../../x86_64-nacl/lib/../lib32/libcrt_common.a(lib_a-init.o)
 .data          0x00000000100406bc        0x0 /home/tx/workspace/nacl_sdk/pepper_29/toolchain/linux_x86_newlib/bin/../lib/gcc/x86_64-nacl/4.4.3/../../../../x86_64-nacl/lib/../lib32/libcrt_common.a(lib_a-vfprintf.o)
 .data          0x00000000100406bc        0x0 /home/tx/workspace/nacl_sdk/pepper_29/toolchain/linux_x86_newlib/bin/../lib/gcc/x86_64-nacl/4.4.3/../../../../x86_64-nacl/lib/../lib32/libcrt_common.a(lib_a-dtoa.o)
 .data          0x00000000100406bc        0x0 /home/tx/workspace/nacl_sdk/pepper_29/toolchain/linux_x86_newlib/bin/../lib/gcc/x86_64-nacl/4.4.3/../../../../x86_64-nacl/lib/../lib32/libcrt_common.a(lib_a-mprec.o)
 .data          0x00000000100406bc        0x0 /home/tx/workspace/nacl_sdk/pepper_29/toolchain/linux_x86_newlib/bin/../lib/gcc/x86_64-nacl/4.4.3/../../../../x86_64-nacl/lib/../lib32/libcrt_common.a(lib_a-s_fpclassify.o)
 .data          0x00000000100406bc        0x0 /home/tx/workspace/nacl_sdk/pepper_29/toolchain/linux_x86_newlib/bin/../lib/gcc/x86_64-nacl/4.4.3/../../../../x86_64-nacl/lib/../lib32/libcrt_common.a(lib_a-s_frexp.o)
 .data          0x00000000100406bc        0x0 /home/tx/workspace/nacl_sdk/pepper_29/toolchain/linux_x86_newlib/bin/../lib/gcc/x86_64-nacl/4.4.3/32/libgcc.a(_udivdi3.o)
 .data          0x00000000100406bc        0x0 /home/tx/workspace/nacl_sdk/pepper_29/toolchain/linux_x86_newlib/bin/../lib/gcc/x86_64-nacl/4.4.3/32/libgcc.a(_umoddi3.o)
 .data          0x00000000100406bc        0x0 /home/tx/workspace/nacl_sdk/pepper_29/toolchain/linux_x86_newlib/bin/../lib/gcc/x86_64-nacl/4.4.3/32/crtend.o
 .data          0x00000000100406bc        0x0 /home/tx/workspace/nacl_sdk/pepper_29/toolchain/linux_x86_newlib/bin/../lib/gcc/x86_64-nacl/4.4.3/../../../../x86_64-nacl/lib/../lib32/crtn.o

.data1
 *(.data1)
                0x00000000100406bc                _edata = .
                0x00000000100406bc                PROVIDE (edata, .)
                0x00000000100406bc                __bss_start = .

.bss            0x00000000100406c0     0x1688
 *(.dynbss)
 *(.bss .bss.* .gnu.linkonce.b.*)
 .bss           0x00000000100406c0        0x0 /home/tx/workspace/nacl_sdk/pepper_29/toolchain/linux_x86_newlib/bin/../lib/gcc/x86_64-nacl/4.4.3/../../../../x86_64-nacl/lib/../lib32/crti.o
 .bss           0x00000000100406c0       0x20 /home/tx/workspace/nacl_sdk/pepper_29/toolchain/linux_x86_newlib/bin/../lib/gcc/x86_64-nacl/4.4.3/32/crtbegin.o
 .bss           0x00000000100406e0        0xc newlib/Debug/tmp_x86_32.o
 .bss           0x00000000100406ec        0x0 /home/tx/workspace/nacl_sdk/pepper_29/toolchain/linux_x86_newlib/bin/../lib/gcc/x86_64-nacl/4.4.3/../../../../x86_64-nacl/lib/../lib32/libppapi_stub.a(plugin_main_irt.o)
 .bss           0x00000000100406ec        0x0 /home/tx/workspace/nacl_sdk/pepper_29/toolchain/linux_x86_newlib/bin/../lib/gcc/x86_64-nacl/4.4.3/../../../../x86_64-nacl/lib/../lib32/libppapi_stub.a(ppapi_plugin_main.o)
 .bss           0x00000000100406ec        0x0 /home/tx/workspace/nacl_sdk/pepper_29/toolchain/linux_x86_newlib/bin/../lib/gcc/x86_64-nacl/4.4.3/../../../../x86_64-nacl/lib/../lib32/libppapi_stub.a(ppapi_plugin_start.o)
 .bss           0x00000000100406ec        0x0 /home/tx/workspace/nacl_sdk/pepper_29/toolchain/linux_x86_newlib/bin/../lib/gcc/x86_64-nacl/4.4.3/../../../../x86_64-nacl/lib/../lib32/libppapi_stub.a(thread_creator.o)
 *fill*         0x00000000100406ec       0x14 00
 .bss           0x0000000010040700     0x1020 /home/tx/workspace/nacl_sdk/pepper_29/toolchain/linux_x86_newlib/bin/../lib/gcc/x86_64-nacl/4.4.3/../../../../x86_64-nacl/lib/../lib32/libpthread.a(nc_thread.o)
 .bss           0x0000000010041720        0x0 /home/tx/workspace/nacl_sdk/pepper_29/toolchain/linux_x86_newlib/bin/../lib/gcc/x86_64-nacl/4.4.3/../../../../x86_64-nacl/lib/../lib32/libpthread.a(nc_mutex.o)
 .bss           0x0000000010041720        0x0 /home/tx/workspace/nacl_sdk/pepper_29/toolchain/linux_x86_newlib/bin/../lib/gcc/x86_64-nacl/4.4.3/../../../../x86_64-nacl/lib/../lib32/libpthread.a(nc_condvar.o)
 .bss           0x0000000010041720        0x0 /home/tx/workspace/nacl_sdk/pepper_29/toolchain/linux_x86_newlib/bin/../lib/gcc/x86_64-nacl/4.4.3/../../../../x86_64-nacl/lib/../lib32/libpthread.a(nc_init_irt.o)
 .bss           0x0000000010041720        0x0 /home/tx/workspace/nacl_sdk/pepper_29/toolchain/linux_x86_newlib/bin/../lib/gcc/x86_64-nacl/4.4.3/../../../../x86_64-nacl/lib/../lib32/libpthread.a(dynamic_annotations.o)
 .bss           0x0000000010041720        0x0 /home/tx/workspace/nacl_sdk/pepper_29/toolchain/linux_x86_newlib/bin/../lib/gcc/x86_64-nacl/4.4.3/../../../../x86_64-nacl/lib/../lib32/libpthread.a(futex.o)
 .bss           0x0000000010041720        0x0 /home/tx/workspace/nacl_sdk/pepper_29/toolchain/linux_x86_newlib/bin/../lib/gcc/x86_64-nacl/4.4.3/../../../../x86_64-nacl/lib/../lib32/libcrt_common.a(lib_a-assert.o)
 .bss           0x0000000010041720        0x4 /home/tx/workspace/nacl_sdk/pepper_29/toolchain/linux_x86_newlib/bin/../lib/gcc/x86_64-nacl/4.4.3/../../../../x86_64-nacl/lib/../lib32/libcrt_common.a(lib_a-environ.o)
 .bss           0x0000000010041724        0x0 /home/tx/workspace/nacl_sdk/pepper_29/toolchain/linux_x86_newlib/bin/../lib/gcc/x86_64-nacl/4.4.3/../../../../x86_64-nacl/lib/../lib32/libcrt_common.a(lib_a-exit.o)
 .bss           0x0000000010041724        0x0 /home/tx/workspace/nacl_sdk/pepper_29/toolchain/linux_x86_newlib/bin/../lib/gcc/x86_64-nacl/4.4.3/../../../../x86_64-nacl/lib/../lib32/libcrt_common.a(lib_a-fiprintf.o)
 .bss           0x0000000010041724        0x0 /home/tx/workspace/nacl_sdk/pepper_29/toolchain/linux_x86_newlib/bin/../lib/gcc/x86_64-nacl/4.4.3/../../../../x86_64-nacl/lib/../lib32/libcrt_common.a(lib_a-getenv.o)
 .bss           0x0000000010041724        0x0 /home/tx/workspace/nacl_sdk/pepper_29/toolchain/linux_x86_newlib/bin/../lib/gcc/x86_64-nacl/4.4.3/../../../../x86_64-nacl/lib/../lib32/libcrt_common.a(lib_a-getenv_r.o)
 .bss           0x0000000010041724        0x0 /home/tx/workspace/nacl_sdk/pepper_29/toolchain/linux_x86_newlib/bin/../lib/gcc/x86_64-nacl/4.4.3/../../../../x86_64-nacl/lib/../lib32/libcrt_common.a(lib_a-impure.o)
 .bss           0x0000000010041724        0x0 /home/tx/workspace/nacl_sdk/pepper_29/toolchain/linux_x86_newlib/bin/../lib/gcc/x86_64-nacl/4.4.3/../../../../x86_64-nacl/lib/../lib32/libcrt_common.a(lib_a-memcpy.o)
 .bss           0x0000000010041724        0x0 /home/tx/workspace/nacl_sdk/pepper_29/toolchain/linux_x86_newlib/bin/../lib/gcc/x86_64-nacl/4.4.3/../../../../x86_64-nacl/lib/../lib32/libcrt_common.a(lib_a-strcat.o)
 .bss           0x0000000010041724        0x0 /home/tx/workspace/nacl_sdk/pepper_29/toolchain/linux_x86_newlib/bin/../lib/gcc/x86_64-nacl/4.4.3/../../../../x86_64-nacl/lib/../lib32/libcrt_common.a(lib_a-strcmp.o)
 .bss           0x0000000010041724        0x0 /home/tx/workspace/nacl_sdk/pepper_29/toolchain/linux_x86_newlib/bin/../lib/gcc/x86_64-nacl/4.4.3/../../../../x86_64-nacl/lib/../lib32/libcrt_common.a(lib_a-strcpy.o)
 .bss           0x0000000010041724        0x0 /home/tx/workspace/nacl_sdk/pepper_29/toolchain/linux_x86_newlib/bin/../lib/gcc/x86_64-nacl/4.4.3/../../../../x86_64-nacl/lib/../lib32/libcrt_common.a(lib_a-strlen.o)
 .bss           0x0000000010041724        0x0 /home/tx/workspace/nacl_sdk/pepper_29/toolchain/linux_x86_newlib/bin/../lib/gcc/x86_64-nacl/4.4.3/../../../../x86_64-nacl/lib/../lib32/libcrt_common.a(lib_a-strncmp.o)
 .bss           0x0000000010041724        0x0 /home/tx/workspace/nacl_sdk/pepper_29/toolchain/linux_x86_newlib/bin/../lib/gcc/x86_64-nacl/4.4.3/../../../../x86_64-nacl/lib/../lib32/libcrt_common.a(lib_a-vfiprintf.o)
 .bss           0x0000000010041724        0x0 /home/tx/workspace/nacl_sdk/pepper_29/toolchain/linux_x86_newlib/bin/../lib/gcc/x86_64-nacl/4.4.3/../../../../x86_64-nacl/lib/../lib32/libcrt_common.a(lib_a-wcrtomb.o)
 .bss           0x0000000010041724        0x0 /home/tx/workspace/nacl_sdk/pepper_29/toolchain/linux_x86_newlib/bin/../lib/gcc/x86_64-nacl/4.4.3/../../../../x86_64-nacl/lib/../lib32/libcrt_common.a(lib_a-wcsrtombs.o)
 .bss           0x0000000010041724        0x0 /home/tx/workspace/nacl_sdk/pepper_29/toolchain/linux_x86_newlib/bin/../lib/gcc/x86_64-nacl/4.4.3/../../../../x86_64-nacl/lib/../lib32/libcrt_common.a(lib_a-wctomb_r.o)
 .bss           0x0000000010041724        0x0 /home/tx/workspace/nacl_sdk/pepper_29/toolchain/linux_x86_newlib/bin/../lib/gcc/x86_64-nacl/4.4.3/../../../../x86_64-nacl/lib/../lib32/libcrt_common.a(lib_a-wsetup.o)
 .bss           0x0000000010041724        0x0 /home/tx/workspace/nacl_sdk/pepper_29/toolchain/linux_x86_newlib/bin/../lib/gcc/x86_64-nacl/4.4.3/../../../../x86_64-nacl/lib/../lib32/libcrt_common.a(lib_a-abort.o)
 .bss           0x0000000010041724        0x0 /home/tx/workspace/nacl_sdk/pepper_29/toolchain/linux_x86_newlib/bin/../lib/gcc/x86_64-nacl/4.4.3/../../../../x86_64-nacl/lib/../lib32/libcrt_common.a(lib_a-__call_atexit.o)
 .bss           0x0000000010041724        0x0 /home/tx/workspace/nacl_sdk/pepper_29/toolchain/linux_x86_newlib/bin/../lib/gcc/x86_64-nacl/4.4.3/../../../../x86_64-nacl/lib/../lib32/libcrt_common.a(lib_a-envlock.o)
 .bss           0x0000000010041724        0x0 /home/tx/workspace/nacl_sdk/pepper_29/toolchain/linux_x86_newlib/bin/../lib/gcc/x86_64-nacl/4.4.3/../../../../x86_64-nacl/lib/../lib32/libcrt_common.a(lib_a-fflush.o)
 .bss           0x0000000010041724        0x0 /home/tx/workspace/nacl_sdk/pepper_29/toolchain/linux_x86_newlib/bin/../lib/gcc/x86_64-nacl/4.4.3/../../../../x86_64-nacl/lib/../lib32/libcrt_common.a(lib_a-findfp.o)
 .bss           0x0000000010041724        0x0 /home/tx/workspace/nacl_sdk/pepper_29/toolchain/linux_x86_newlib/bin/../lib/gcc/x86_64-nacl/4.4.3/../../../../x86_64-nacl/lib/../lib32/libcrt_common.a(lib_a-fputwc.o)
 .bss           0x0000000010041724        0x0 /home/tx/workspace/nacl_sdk/pepper_29/toolchain/linux_x86_newlib/bin/../lib/gcc/x86_64-nacl/4.4.3/../../../../x86_64-nacl/lib/../lib32/libcrt_common.a(lib_a-fvwrite.o)
 .bss           0x0000000010041724        0x0 /home/tx/workspace/nacl_sdk/pepper_29/toolchain/linux_x86_newlib/bin/../lib/gcc/x86_64-nacl/4.4.3/../../../../x86_64-nacl/lib/../lib32/libcrt_common.a(lib_a-fwalk.o)
 *fill*         0x0000000010041724       0x1c 00
 .bss           0x0000000010041740      0x2c7 /home/tx/workspace/nacl_sdk/pepper_29/toolchain/linux_x86_newlib/bin/../lib/gcc/x86_64-nacl/4.4.3/../../../../x86_64-nacl/lib/../lib32/libcrt_common.a(lib_a-locale.o)
                0x0000000010041740                __nlocale_changed
                0x0000000010041744                __mlocale_changed
                0x0000000010041748                _PathLocale
 *fill*         0x0000000010041a07        0x1 00
 .bss           0x0000000010041a08        0x0 /home/tx/workspace/nacl_sdk/pepper_29/toolchain/linux_x86_newlib/bin/../lib/gcc/x86_64-nacl/4.4.3/../../../../x86_64-nacl/lib/../lib32/libcrt_common.a(lib_a-makebuf.o)
 .bss           0x0000000010041a08        0x0 /home/tx/workspace/nacl_sdk/pepper_29/toolchain/linux_x86_newlib/bin/../lib/gcc/x86_64-nacl/4.4.3/../../../../x86_64-nacl/lib/../lib32/libcrt_common.a(lib_a-mbtowc_r.o)
 .bss           0x0000000010041a08        0x0 /home/tx/workspace/nacl_sdk/pepper_29/toolchain/linux_x86_newlib/bin/../lib/gcc/x86_64-nacl/4.4.3/../../../../x86_64-nacl/lib/../lib32/libcrt_common.a(lib_a-memchr.o)
 .bss           0x0000000010041a08        0x0 /home/tx/workspace/nacl_sdk/pepper_29/toolchain/linux_x86_newlib/bin/../lib/gcc/x86_64-nacl/4.4.3/../../../../x86_64-nacl/lib/../lib32/libcrt_common.a(lib_a-memmove.o)
 .bss           0x0000000010041a08        0x0 /home/tx/workspace/nacl_sdk/pepper_29/toolchain/linux_x86_newlib/bin/../lib/gcc/x86_64-nacl/4.4.3/../../../../x86_64-nacl/lib/../lib32/libcrt_common.a(lib_a-memset.o)
 .bss           0x0000000010041a08        0x0 /home/tx/workspace/nacl_sdk/pepper_29/toolchain/linux_x86_newlib/bin/../lib/gcc/x86_64-nacl/4.4.3/../../../../x86_64-nacl/lib/../lib32/libcrt_common.a(lib_a-stdio.o)
 .bss           0x0000000010041a08        0x0 /home/tx/workspace/nacl_sdk/pepper_29/toolchain/linux_x86_newlib/bin/../lib/gcc/x86_64-nacl/4.4.3/../../../../x86_64-nacl/lib/../lib32/libcrt_common.a(lib_a-strcasecmp.o)
 .bss           0x0000000010041a08        0x0 /home/tx/workspace/nacl_sdk/pepper_29/toolchain/linux_x86_newlib/bin/../lib/gcc/x86_64-nacl/4.4.3/../../../../x86_64-nacl/lib/../lib32/libcrt_common.a(lib_a-strchr.o)
 .bss           0x0000000010041a08        0x0 /home/tx/workspace/nacl_sdk/pepper_29/toolchain/linux_x86_newlib/bin/../lib/gcc/x86_64-nacl/4.4.3/../../../../x86_64-nacl/lib/../lib32/libcrt_common.a(lib_a-strlcpy.o)
 .bss           0x0000000010041a08        0x0 /home/tx/workspace/nacl_sdk/pepper_29/toolchain/linux_x86_newlib/bin/../lib/gcc/x86_64-nacl/4.4.3/../../../../x86_64-nacl/lib/../lib32/libcrt_common.a(lib_a-strncasecmp.o)
 .bss           0x0000000010041a08        0x0 /home/tx/workspace/nacl_sdk/pepper_29/toolchain/linux_x86_newlib/bin/../lib/gcc/x86_64-nacl/4.4.3/../../../../x86_64-nacl/lib/../lib32/libcrt_common.a(lib_a-strncpy.o)
 .bss           0x0000000010041a08        0x0 /home/tx/workspace/nacl_sdk/pepper_29/toolchain/linux_x86_newlib/bin/../lib/gcc/x86_64-nacl/4.4.3/../../../../x86_64-nacl/lib/../lib32/libcrt_common.a(lib_a-strtol.o)
 .bss           0x0000000010041a08        0x0 /home/tx/workspace/nacl_sdk/pepper_29/toolchain/linux_x86_newlib/bin/../lib/gcc/x86_64-nacl/4.4.3/../../../../x86_64-nacl/lib/../lib32/libcrt_common.a(lib_a-wbuf.o)
 .bss           0x0000000010041a08        0x0 /home/tx/workspace/nacl_sdk/pepper_29/toolchain/linux_x86_newlib/bin/../lib/gcc/x86_64-nacl/4.4.3/../../../../x86_64-nacl/lib/../lib32/libcrt_common.a(lib_a-wcsnrtombs.o)
 .bss           0x0000000010041a08        0x0 /home/tx/workspace/nacl_sdk/pepper_29/toolchain/linux_x86_newlib/bin/../lib/gcc/x86_64-nacl/4.4.3/../../../../x86_64-nacl/lib/../lib32/libcrt_common.a(lib_a-writer.o)
 .bss           0x0000000010041a08        0x0 /home/tx/workspace/nacl_sdk/pepper_29/toolchain/linux_x86_newlib/bin/../lib/gcc/x86_64-nacl/4.4.3/../../../../x86_64-nacl/lib/../lib32/libcrt_common.a(lib_a-__atexit.o)
 .bss           0x0000000010041a08        0x0 /home/tx/workspace/nacl_sdk/pepper_29/toolchain/linux_x86_newlib/bin/../lib/gcc/x86_64-nacl/4.4.3/../../../../x86_64-nacl/lib/../lib32/libcrt_common.a(lib_a-closer.o)
 .bss           0x0000000010041a08        0x0 /home/tx/workspace/nacl_sdk/pepper_29/toolchain/linux_x86_newlib/bin/../lib/gcc/x86_64-nacl/4.4.3/../../../../x86_64-nacl/lib/../lib32/libcrt_common.a(lib_a-ctype_.o)
 .bss           0x0000000010041a08        0x0 /home/tx/workspace/nacl_sdk/pepper_29/toolchain/linux_x86_newlib/bin/../lib/gcc/x86_64-nacl/4.4.3/../../../../x86_64-nacl/lib/../lib32/libcrt_common.a(lib_a-fclose.o)
 .bss           0x0000000010041a08        0x0 /home/tx/workspace/nacl_sdk/pepper_29/toolchain/linux_x86_newlib/bin/../lib/gcc/x86_64-nacl/4.4.3/../../../../x86_64-nacl/lib/../lib32/libcrt_common.a(lib_a-fstatr.o)
 .bss           0x0000000010041a08        0x0 /home/tx/workspace/nacl_sdk/pepper_29/toolchain/linux_x86_newlib/bin/../lib/gcc/x86_64-nacl/4.4.3/../../../../x86_64-nacl/lib/../lib32/libcrt_common.a(lib_a-isattyr.o)
 .bss           0x0000000010041a08        0x0 /home/tx/workspace/nacl_sdk/pepper_29/toolchain/linux_x86_newlib/bin/../lib/gcc/x86_64-nacl/4.4.3/../../../../x86_64-nacl/lib/../lib32/libcrt_common.a(lib_a-lseekr.o)
 .bss           0x0000000010041a08        0x0 /home/tx/workspace/nacl_sdk/pepper_29/toolchain/linux_x86_newlib/bin/../lib/gcc/x86_64-nacl/4.4.3/../../../../x86_64-nacl/lib/../lib32/libcrt_common.a(lib_a-readr.o)
 .bss           0x0000000010041a08        0x0 /home/tx/workspace/nacl_sdk/pepper_29/toolchain/linux_x86_newlib/bin/../lib/gcc/x86_64-nacl/4.4.3/../../../../x86_64-nacl/lib/../lib32/libcrt_common.a(lib_a-reent.o)
 .bss           0x0000000010041a08        0x0 /home/tx/workspace/nacl_sdk/pepper_29/toolchain/linux_x86_newlib/bin/../lib/gcc/x86_64-nacl/4.4.3/../../../../x86_64-nacl/lib/../lib32/libcrt_common.a(lib_a-isatty.o)
 .bss           0x0000000010041a08        0x0 /home/tx/workspace/nacl_sdk/pepper_29/toolchain/linux_x86_newlib/bin/../lib/gcc/x86_64-nacl/4.4.3/../../../../x86_64-nacl/lib/../lib32/libcrt_common.a(lib_a-_isatty.o)
 .bss           0x0000000010041a08        0x0 /home/tx/workspace/nacl_sdk/pepper_29/toolchain/linux_x86_newlib/bin/../lib/gcc/x86_64-nacl/4.4.3/../../../../x86_64-nacl/lib/../lib32/libcrt_common.a(lib_a-errno.o)
 .bss           0x0000000010041a08        0x0 /home/tx/workspace/nacl_sdk/pepper_29/toolchain/linux_x86_newlib/bin/../lib/gcc/x86_64-nacl/4.4.3/../../../../x86_64-nacl/lib/../lib32/libnacl.a(nacl_irt.o)
 .bss           0x0000000010041a08        0x0 /home/tx/workspace/nacl_sdk/pepper_29/toolchain/linux_x86_newlib/bin/../lib/gcc/x86_64-nacl/4.4.3/../../../../x86_64-nacl/lib/../lib32/libnacl.a(close.o)
 .bss           0x0000000010041a08        0x0 /home/tx/workspace/nacl_sdk/pepper_29/toolchain/linux_x86_newlib/bin/../lib/gcc/x86_64-nacl/4.4.3/../../../../x86_64-nacl/lib/../lib32/libnacl.a(_exit.o)
 .bss           0x0000000010041a08        0x0 /home/tx/workspace/nacl_sdk/pepper_29/toolchain/linux_x86_newlib/bin/../lib/gcc/x86_64-nacl/4.4.3/../../../../x86_64-nacl/lib/../lib32/libnacl.a(fstat.o)
 .bss           0x0000000010041a08        0x0 /home/tx/workspace/nacl_sdk/pepper_29/toolchain/linux_x86_newlib/bin/../lib/gcc/x86_64-nacl/4.4.3/../../../../x86_64-nacl/lib/../lib32/libnacl.a(lseek.o)
 *fill*         0x0000000010041a08       0x18 00
 .bss           0x0000000010041a20      0x1fc /home/tx/workspace/nacl_sdk/pepper_29/toolchain/linux_x86_newlib/bin/../lib/gcc/x86_64-nacl/4.4.3/../../../../x86_64-nacl/lib/../lib32/libnacl.a(malloc.o)
 .bss           0x0000000010041c1c        0x0 /home/tx/workspace/nacl_sdk/pepper_29/toolchain/linux_x86_newlib/bin/../lib/gcc/x86_64-nacl/4.4.3/../../../../x86_64-nacl/lib/../lib32/libnacl.a(mmap.o)
 .bss           0x0000000010041c1c        0x0 /home/tx/workspace/nacl_sdk/pepper_29/toolchain/linux_x86_newlib/bin/../lib/gcc/x86_64-nacl/4.4.3/../../../../x86_64-nacl/lib/../lib32/libnacl.a(munmap.o)
 .bss           0x0000000010041c1c        0x0 /home/tx/workspace/nacl_sdk/pepper_29/toolchain/linux_x86_newlib/bin/../lib/gcc/x86_64-nacl/4.4.3/../../../../x86_64-nacl/lib/../lib32/libnacl.a(nacl_read_tp.o)
 .bss           0x0000000010041c1c        0x0 /home/tx/workspace/nacl_sdk/pepper_29/toolchain/linux_x86_newlib/bin/../lib/gcc/x86_64-nacl/4.4.3/../../../../x86_64-nacl/lib/../lib32/libnacl.a(read.o)
 .bss           0x0000000010041c1c        0x0 /home/tx/workspace/nacl_sdk/pepper_29/toolchain/linux_x86_newlib/bin/../lib/gcc/x86_64-nacl/4.4.3/../../../../x86_64-nacl/lib/../lib32/libnacl.a(pthread_initialize_minimal.o)
 .bss           0x0000000010041c1c        0x4 /home/tx/workspace/nacl_sdk/pepper_29/toolchain/linux_x86_newlib/bin/../lib/gcc/x86_64-nacl/4.4.3/../../../../x86_64-nacl/lib/../lib32/libnacl.a(sbrk.o)
 .bss           0x0000000010041c20        0x0 /home/tx/workspace/nacl_sdk/pepper_29/toolchain/linux_x86_newlib/bin/../lib/gcc/x86_64-nacl/4.4.3/../../../../x86_64-nacl/lib/../lib32/libnacl.a(sched_yield.o)
 .bss           0x0000000010041c20        0x0 /home/tx/workspace/nacl_sdk/pepper_29/toolchain/linux_x86_newlib/bin/../lib/gcc/x86_64-nacl/4.4.3/../../../../x86_64-nacl/lib/../lib32/libnacl.a(start.o)
 .bss           0x0000000010041c20        0x0 /home/tx/workspace/nacl_sdk/pepper_29/toolchain/linux_x86_newlib/bin/../lib/gcc/x86_64-nacl/4.4.3/../../../../x86_64-nacl/lib/../lib32/libnacl.a(sysconf.o)
 .bss           0x0000000010041c20       0x10 /home/tx/workspace/nacl_sdk/pepper_29/toolchain/linux_x86_newlib/bin/../lib/gcc/x86_64-nacl/4.4.3/../../../../x86_64-nacl/lib/../lib32/libnacl.a(tls.o)
 .bss           0x0000000010041c30        0x0 /home/tx/workspace/nacl_sdk/pepper_29/toolchain/linux_x86_newlib/bin/../lib/gcc/x86_64-nacl/4.4.3/../../../../x86_64-nacl/lib/../lib32/libnacl.a(write.o)
 .bss           0x0000000010041c30        0x0 /home/tx/workspace/nacl_sdk/pepper_29/toolchain/linux_x86_newlib/bin/../lib/gcc/x86_64-nacl/4.4.3/../../../../x86_64-nacl/lib/../lib32/libnacl.a(nacl_tls_init.o)
 .bss           0x0000000010041c30        0x0 /home/tx/workspace/nacl_sdk/pepper_29/toolchain/linux_x86_newlib/bin/../lib/gcc/x86_64-nacl/4.4.3/../../../../x86_64-nacl/lib/../lib32/libcrt_common.a(lib_a-atexit.o)
 .bss           0x0000000010041c30        0x0 /home/tx/workspace/nacl_sdk/pepper_29/toolchain/linux_x86_newlib/bin/../lib/gcc/x86_64-nacl/4.4.3/../../../../x86_64-nacl/lib/../lib32/libcrt_common.a(lib_a-fini.o)
 .bss           0x0000000010041c30        0x0 /home/tx/workspace/nacl_sdk/pepper_29/toolchain/linux_x86_newlib/bin/../lib/gcc/x86_64-nacl/4.4.3/../../../../x86_64-nacl/lib/../lib32/libcrt_common.a(lib_a-fprintf.o)
 .bss           0x0000000010041c30        0x0 /home/tx/workspace/nacl_sdk/pepper_29/toolchain/linux_x86_newlib/bin/../lib/gcc/x86_64-nacl/4.4.3/../../../../x86_64-nacl/lib/../lib32/libcrt_common.a(lib_a-init.o)
 .bss           0x0000000010041c30        0x0 /home/tx/workspace/nacl_sdk/pepper_29/toolchain/linux_x86_newlib/bin/../lib/gcc/x86_64-nacl/4.4.3/../../../../x86_64-nacl/lib/../lib32/libcrt_common.a(lib_a-vfprintf.o)
 .bss           0x0000000010041c30        0x0 /home/tx/workspace/nacl_sdk/pepper_29/toolchain/linux_x86_newlib/bin/../lib/gcc/x86_64-nacl/4.4.3/../../../../x86_64-nacl/lib/../lib32/libcrt_common.a(lib_a-dtoa.o)
 .bss           0x0000000010041c30        0x0 /home/tx/workspace/nacl_sdk/pepper_29/toolchain/linux_x86_newlib/bin/../lib/gcc/x86_64-nacl/4.4.3/../../../../x86_64-nacl/lib/../lib32/libcrt_common.a(lib_a-mprec.o)
 .bss           0x0000000010041c30        0x0 /home/tx/workspace/nacl_sdk/pepper_29/toolchain/linux_x86_newlib/bin/../lib/gcc/x86_64-nacl/4.4.3/../../../../x86_64-nacl/lib/../lib32/libcrt_common.a(lib_a-s_fpclassify.o)
 .bss           0x0000000010041c30        0x0 /home/tx/workspace/nacl_sdk/pepper_29/toolchain/linux_x86_newlib/bin/../lib/gcc/x86_64-nacl/4.4.3/../../../../x86_64-nacl/lib/../lib32/libcrt_common.a(lib_a-s_frexp.o)
 .bss           0x0000000010041c30        0x0 /home/tx/workspace/nacl_sdk/pepper_29/toolchain/linux_x86_newlib/bin/../lib/gcc/x86_64-nacl/4.4.3/32/libgcc.a(_udivdi3.o)
 .bss           0x0000000010041c30        0x0 /home/tx/workspace/nacl_sdk/pepper_29/toolchain/linux_x86_newlib/bin/../lib/gcc/x86_64-nacl/4.4.3/32/libgcc.a(_umoddi3.o)
 .bss           0x0000000010041c30        0x0 /home/tx/workspace/nacl_sdk/pepper_29/toolchain/linux_x86_newlib/bin/../lib/gcc/x86_64-nacl/4.4.3/32/crtend.o
 .bss           0x0000000010041c30        0x0 /home/tx/workspace/nacl_sdk/pepper_29/toolchain/linux_x86_newlib/bin/../lib/gcc/x86_64-nacl/4.4.3/../../../../x86_64-nacl/lib/../lib32/crtn.o
 *(COMMON)
 COMMON         0x0000000010041c30       0x34 /home/tx/workspace/nacl_sdk/pepper_29/toolchain/linux_x86_newlib/bin/../lib/gcc/x86_64-nacl/4.4.3/../../../../x86_64-nacl/lib/../lib32/libpthread.a(nc_thread.o)
                0x0000000010041c30                __nc_thread_initialized
                0x0000000010041c34                __nc_thread_management_lock
                0x0000000010041c48                __nc_memory_block_counter
                0x0000000010041c50                __nc_initial_thread_id
                0x0000000010041c54                __nc_thread_memory_blocks
 COMMON         0x0000000010041c64       0x3c /home/tx/workspace/nacl_sdk/pepper_29/toolchain/linux_x86_newlib/bin/../lib/gcc/x86_64-nacl/4.4.3/../../../../x86_64-nacl/lib/../lib32/libpthread.a(nc_init_irt.o)
                0x0000000010041c64                __nc_irt_mutex
                0x0000000010041c78                __nc_irt_sem
                0x0000000010041c88                __nc_irt_cond
 COMMON         0x0000000010041ca0        0x4 /home/tx/workspace/nacl_sdk/pepper_29/toolchain/linux_x86_newlib/bin/../lib/gcc/x86_64-nacl/4.4.3/../../../../x86_64-nacl/lib/../lib32/libcrt_common.a(lib_a-reent.o)
                0x0000000010041ca0                errno
 *fill*         0x0000000010041ca4       0x1c 00
 COMMON         0x0000000010041cc0       0x84 /home/tx/workspace/nacl_sdk/pepper_29/toolchain/linux_x86_newlib/bin/../lib/gcc/x86_64-nacl/4.4.3/../../../../x86_64-nacl/lib/../lib32/libnacl.a(nacl_irt.o)
                0x0000000010041cc0                __nacl_irt_query
                0x0000000010041cc4                __libnacl_irt_filename
                0x0000000010041ccc                __libnacl_irt_dyncode
                0x0000000010041cd8                __libnacl_irt_blockhook
                0x0000000010041cdc                __libnacl_irt_clock
                0x0000000010041ce4                __libnacl_irt_memory
                0x0000000010041d00                __libnacl_irt_fdio
                0x0000000010041d20                __libnacl_irt_basic
                0x0000000010041d38                __libnacl_irt_tls
                0x0000000010041d40                __libnacl_irt_dev_getpid
 COMMON         0x0000000010041d44        0x4 /home/tx/workspace/nacl_sdk/pepper_29/toolchain/linux_x86_newlib/bin/../lib/gcc/x86_64-nacl/4.4.3/../../../../x86_64-nacl/lib/../lib32/libnacl.a(start.o)
                0x0000000010041d44                __nacl_initial_thread_stack_end
                0x0000000010041d48                . = ALIGN ((. != 0x0)?0x4:0x1)
                0x0000000010041d48                . = ALIGN (0x4)
                0x0000000010041d48                . = ALIGN (0x4)
                0x0000000010041d48                _end = .
                0x0000000010041d48                PROVIDE (end, .)
                0x0000000010041d48                . = DATA_SEGMENT_END (.)

.stab
 *(.stab)

.stabstr
 *(.stabstr)

.stab.excl
 *(.stab.excl)

.stab.exclstr
 *(.stab.exclstr)

.stab.index
 *(.stab.index)

.stab.indexstr
 *(.stab.indexstr)

.comment        0x0000000000000000       0x66
 *(.comment)
 .comment       0x0000000000000000       0x66 /home/tx/workspace/nacl_sdk/pepper_29/toolchain/linux_x86_newlib/bin/../lib/gcc/x86_64-nacl/4.4.3/32/crtbegin.o
                                         0x67 (size before relaxing)
 .comment       0x0000000000000000       0x67 newlib/Debug/tmp_x86_32.o
 .comment       0x0000000000000000       0x67 /home/tx/workspace/nacl_sdk/pepper_29/toolchain/linux_x86_newlib/bin/../lib/gcc/x86_64-nacl/4.4.3/../../../../x86_64-nacl/lib/../lib32/libppapi_stub.a(plugin_main_irt.o)
 .comment       0x0000000000000000       0x67 /home/tx/workspace/nacl_sdk/pepper_29/toolchain/linux_x86_newlib/bin/../lib/gcc/x86_64-nacl/4.4.3/../../../../x86_64-nacl/lib/../lib32/libppapi_stub.a(ppapi_plugin_main.o)
 .comment       0x0000000000000000       0x67 /home/tx/workspace/nacl_sdk/pepper_29/toolchain/linux_x86_newlib/bin/../lib/gcc/x86_64-nacl/4.4.3/../../../../x86_64-nacl/lib/../lib32/libppapi_stub.a(ppapi_plugin_start.o)
 .comment       0x0000000000000000       0x67 /home/tx/workspace/nacl_sdk/pepper_29/toolchain/linux_x86_newlib/bin/../lib/gcc/x86_64-nacl/4.4.3/../../../../x86_64-nacl/lib/../lib32/libppapi_stub.a(thread_creator.o)
 .comment       0x0000000000000000       0x67 /home/tx/workspace/nacl_sdk/pepper_29/toolchain/linux_x86_newlib/bin/../lib/gcc/x86_64-nacl/4.4.3/../../../../x86_64-nacl/lib/../lib32/libpthread.a(nc_thread.o)
 .comment       0x0000000000000000       0x67 /home/tx/workspace/nacl_sdk/pepper_29/toolchain/linux_x86_newlib/bin/../lib/gcc/x86_64-nacl/4.4.3/../../../../x86_64-nacl/lib/../lib32/libpthread.a(nc_mutex.o)
 .comment       0x0000000000000000       0x67 /home/tx/workspace/nacl_sdk/pepper_29/toolchain/linux_x86_newlib/bin/../lib/gcc/x86_64-nacl/4.4.3/../../../../x86_64-nacl/lib/../lib32/libpthread.a(nc_condvar.o)
 .comment       0x0000000000000000       0x67 /home/tx/workspace/nacl_sdk/pepper_29/toolchain/linux_x86_newlib/bin/../lib/gcc/x86_64-nacl/4.4.3/../../../../x86_64-nacl/lib/../lib32/libpthread.a(nc_init_irt.o)
 .comment       0x0000000000000000       0x67 /home/tx/workspace/nacl_sdk/pepper_29/toolchain/linux_x86_newlib/bin/../lib/gcc/x86_64-nacl/4.4.3/../../../../x86_64-nacl/lib/../lib32/libpthread.a(dynamic_annotations.o)
 .comment       0x0000000000000000       0x67 /home/tx/workspace/nacl_sdk/pepper_29/toolchain/linux_x86_newlib/bin/../lib/gcc/x86_64-nacl/4.4.3/../../../../x86_64-nacl/lib/../lib32/libpthread.a(futex.o)
 .comment       0x0000000000000000       0x67 /home/tx/workspace/nacl_sdk/pepper_29/toolchain/linux_x86_newlib/bin/../lib/gcc/x86_64-nacl/4.4.3/../../../../x86_64-nacl/lib/../lib32/libcrt_common.a(lib_a-assert.o)
 .comment       0x0000000000000000       0x67 /home/tx/workspace/nacl_sdk/pepper_29/toolchain/linux_x86_newlib/bin/../lib/gcc/x86_64-nacl/4.4.3/../../../../x86_64-nacl/lib/../lib32/libcrt_common.a(lib_a-environ.o)
 .comment       0x0000000000000000       0x67 /home/tx/workspace/nacl_sdk/pepper_29/toolchain/linux_x86_newlib/bin/../lib/gcc/x86_64-nacl/4.4.3/../../../../x86_64-nacl/lib/../lib32/libcrt_common.a(lib_a-exit.o)
 .comment       0x0000000000000000       0x67 /home/tx/workspace/nacl_sdk/pepper_29/toolchain/linux_x86_newlib/bin/../lib/gcc/x86_64-nacl/4.4.3/../../../../x86_64-nacl/lib/../lib32/libcrt_common.a(lib_a-fiprintf.o)
 .comment       0x0000000000000000       0x67 /home/tx/workspace/nacl_sdk/pepper_29/toolchain/linux_x86_newlib/bin/../lib/gcc/x86_64-nacl/4.4.3/../../../../x86_64-nacl/lib/../lib32/libcrt_common.a(lib_a-getenv.o)
 .comment       0x0000000000000000       0x67 /home/tx/workspace/nacl_sdk/pepper_29/toolchain/linux_x86_newlib/bin/../lib/gcc/x86_64-nacl/4.4.3/../../../../x86_64-nacl/lib/../lib32/libcrt_common.a(lib_a-getenv_r.o)
 .comment       0x0000000000000000       0x67 /home/tx/workspace/nacl_sdk/pepper_29/toolchain/linux_x86_newlib/bin/../lib/gcc/x86_64-nacl/4.4.3/../../../../x86_64-nacl/lib/../lib32/libcrt_common.a(lib_a-impure.o)
 .comment       0x0000000000000000       0x67 /home/tx/workspace/nacl_sdk/pepper_29/toolchain/linux_x86_newlib/bin/../lib/gcc/x86_64-nacl/4.4.3/../../../../x86_64-nacl/lib/../lib32/libcrt_common.a(lib_a-strcat.o)
 .comment       0x0000000000000000       0x67 /home/tx/workspace/nacl_sdk/pepper_29/toolchain/linux_x86_newlib/bin/../lib/gcc/x86_64-nacl/4.4.3/../../../../x86_64-nacl/lib/../lib32/libcrt_common.a(lib_a-strcmp.o)
 .comment       0x0000000000000000       0x67 /home/tx/workspace/nacl_sdk/pepper_29/toolchain/linux_x86_newlib/bin/../lib/gcc/x86_64-nacl/4.4.3/../../../../x86_64-nacl/lib/../lib32/libcrt_common.a(lib_a-strcpy.o)
 .comment       0x0000000000000000       0x67 /home/tx/workspace/nacl_sdk/pepper_29/toolchain/linux_x86_newlib/bin/../lib/gcc/x86_64-nacl/4.4.3/../../../../x86_64-nacl/lib/../lib32/libcrt_common.a(lib_a-strncmp.o)
 .comment       0x0000000000000000       0x67 /home/tx/workspace/nacl_sdk/pepper_29/toolchain/linux_x86_newlib/bin/../lib/gcc/x86_64-nacl/4.4.3/../../../../x86_64-nacl/lib/../lib32/libcrt_common.a(lib_a-vfiprintf.o)
 .comment       0x0000000000000000       0x67 /home/tx/workspace/nacl_sdk/pepper_29/toolchain/linux_x86_newlib/bin/../lib/gcc/x86_64-nacl/4.4.3/../../../../x86_64-nacl/lib/../lib32/libcrt_common.a(lib_a-wcrtomb.o)
 .comment       0x0000000000000000       0x67 /home/tx/workspace/nacl_sdk/pepper_29/toolchain/linux_x86_newlib/bin/../lib/gcc/x86_64-nacl/4.4.3/../../../../x86_64-nacl/lib/../lib32/libcrt_common.a(lib_a-wcsrtombs.o)
 .comment       0x0000000000000000       0x67 /home/tx/workspace/nacl_sdk/pepper_29/toolchain/linux_x86_newlib/bin/../lib/gcc/x86_64-nacl/4.4.3/../../../../x86_64-nacl/lib/../lib32/libcrt_common.a(lib_a-wctomb_r.o)
 .comment       0x0000000000000000       0x67 /home/tx/workspace/nacl_sdk/pepper_29/toolchain/linux_x86_newlib/bin/../lib/gcc/x86_64-nacl/4.4.3/../../../../x86_64-nacl/lib/../lib32/libcrt_common.a(lib_a-wsetup.o)
 .comment       0x0000000000000000       0x67 /home/tx/workspace/nacl_sdk/pepper_29/toolchain/linux_x86_newlib/bin/../lib/gcc/x86_64-nacl/4.4.3/../../../../x86_64-nacl/lib/../lib32/libcrt_common.a(lib_a-abort.o)
 .comment       0x0000000000000000       0x67 /home/tx/workspace/nacl_sdk/pepper_29/toolchain/linux_x86_newlib/bin/../lib/gcc/x86_64-nacl/4.4.3/../../../../x86_64-nacl/lib/../lib32/libcrt_common.a(lib_a-__call_atexit.o)
 .comment       0x0000000000000000       0x67 /home/tx/workspace/nacl_sdk/pepper_29/toolchain/linux_x86_newlib/bin/../lib/gcc/x86_64-nacl/4.4.3/../../../../x86_64-nacl/lib/../lib32/libcrt_common.a(lib_a-envlock.o)
 .comment       0x0000000000000000       0x67 /home/tx/workspace/nacl_sdk/pepper_29/toolchain/linux_x86_newlib/bin/../lib/gcc/x86_64-nacl/4.4.3/../../../../x86_64-nacl/lib/../lib32/libcrt_common.a(lib_a-fflush.o)
 .comment       0x0000000000000000       0x67 /home/tx/workspace/nacl_sdk/pepper_29/toolchain/linux_x86_newlib/bin/../lib/gcc/x86_64-nacl/4.4.3/../../../../x86_64-nacl/lib/../lib32/libcrt_common.a(lib_a-findfp.o)
 .comment       0x0000000000000000       0x67 /home/tx/workspace/nacl_sdk/pepper_29/toolchain/linux_x86_newlib/bin/../lib/gcc/x86_64-nacl/4.4.3/../../../../x86_64-nacl/lib/../lib32/libcrt_common.a(lib_a-fputwc.o)
 .comment       0x0000000000000000       0x67 /home/tx/workspace/nacl_sdk/pepper_29/toolchain/linux_x86_newlib/bin/../lib/gcc/x86_64-nacl/4.4.3/../../../../x86_64-nacl/lib/../lib32/libcrt_common.a(lib_a-fvwrite.o)
 .comment       0x0000000000000000       0x67 /home/tx/workspace/nacl_sdk/pepper_29/toolchain/linux_x86_newlib/bin/../lib/gcc/x86_64-nacl/4.4.3/../../../../x86_64-nacl/lib/../lib32/libcrt_common.a(lib_a-fwalk.o)
 .comment       0x0000000000000000       0x67 /home/tx/workspace/nacl_sdk/pepper_29/toolchain/linux_x86_newlib/bin/../lib/gcc/x86_64-nacl/4.4.3/../../../../x86_64-nacl/lib/../lib32/libcrt_common.a(lib_a-locale.o)
 .comment       0x0000000000000000       0x67 /home/tx/workspace/nacl_sdk/pepper_29/toolchain/linux_x86_newlib/bin/../lib/gcc/x86_64-nacl/4.4.3/../../../../x86_64-nacl/lib/../lib32/libcrt_common.a(lib_a-makebuf.o)
 .comment       0x0000000000000000       0x67 /home/tx/workspace/nacl_sdk/pepper_29/toolchain/linux_x86_newlib/bin/../lib/gcc/x86_64-nacl/4.4.3/../../../../x86_64-nacl/lib/../lib32/libcrt_common.a(lib_a-mbtowc_r.o)
 .comment       0x0000000000000000       0x67 /home/tx/workspace/nacl_sdk/pepper_29/toolchain/linux_x86_newlib/bin/../lib/gcc/x86_64-nacl/4.4.3/../../../../x86_64-nacl/lib/../lib32/libcrt_common.a(lib_a-stdio.o)
 .comment       0x0000000000000000       0x67 /home/tx/workspace/nacl_sdk/pepper_29/toolchain/linux_x86_newlib/bin/../lib/gcc/x86_64-nacl/4.4.3/../../../../x86_64-nacl/lib/../lib32/libcrt_common.a(lib_a-strcasecmp.o)
 .comment       0x0000000000000000       0x67 /home/tx/workspace/nacl_sdk/pepper_29/toolchain/linux_x86_newlib/bin/../lib/gcc/x86_64-nacl/4.4.3/../../../../x86_64-nacl/lib/../lib32/libcrt_common.a(lib_a-strlcpy.o)
 .comment       0x0000000000000000       0x67 /home/tx/workspace/nacl_sdk/pepper_29/toolchain/linux_x86_newlib/bin/../lib/gcc/x86_64-nacl/4.4.3/../../../../x86_64-nacl/lib/../lib32/libcrt_common.a(lib_a-strncasecmp.o)
 .comment       0x0000000000000000       0x67 /home/tx/workspace/nacl_sdk/pepper_29/toolchain/linux_x86_newlib/bin/../lib/gcc/x86_64-nacl/4.4.3/../../../../x86_64-nacl/lib/../lib32/libcrt_common.a(lib_a-strncpy.o)
 .comment       0x0000000000000000       0x67 /home/tx/workspace/nacl_sdk/pepper_29/toolchain/linux_x86_newlib/bin/../lib/gcc/x86_64-nacl/4.4.3/../../../../x86_64-nacl/lib/../lib32/libcrt_common.a(lib_a-strtol.o)
 .comment       0x0000000000000000       0x67 /home/tx/workspace/nacl_sdk/pepper_29/toolchain/linux_x86_newlib/bin/../lib/gcc/x86_64-nacl/4.4.3/../../../../x86_64-nacl/lib/../lib32/libcrt_common.a(lib_a-wbuf.o)
 .comment       0x0000000000000000       0x67 /home/tx/workspace/nacl_sdk/pepper_29/toolchain/linux_x86_newlib/bin/../lib/gcc/x86_64-nacl/4.4.3/../../../../x86_64-nacl/lib/../lib32/libcrt_common.a(lib_a-wcsnrtombs.o)
 .comment       0x0000000000000000       0x67 /home/tx/workspace/nacl_sdk/pepper_29/toolchain/linux_x86_newlib/bin/../lib/gcc/x86_64-nacl/4.4.3/../../../../x86_64-nacl/lib/../lib32/libcrt_common.a(lib_a-writer.o)
 .comment       0x0000000000000000       0x67 /home/tx/workspace/nacl_sdk/pepper_29/toolchain/linux_x86_newlib/bin/../lib/gcc/x86_64-nacl/4.4.3/../../../../x86_64-nacl/lib/../lib32/libcrt_common.a(lib_a-__atexit.o)
 .comment       0x0000000000000000       0x67 /home/tx/workspace/nacl_sdk/pepper_29/toolchain/linux_x86_newlib/bin/../lib/gcc/x86_64-nacl/4.4.3/../../../../x86_64-nacl/lib/../lib32/libcrt_common.a(lib_a-closer.o)
 .comment       0x0000000000000000       0x67 /home/tx/workspace/nacl_sdk/pepper_29/toolchain/linux_x86_newlib/bin/../lib/gcc/x86_64-nacl/4.4.3/../../../../x86_64-nacl/lib/../lib32/libcrt_common.a(lib_a-ctype_.o)
 .comment       0x0000000000000000       0x67 /home/tx/workspace/nacl_sdk/pepper_29/toolchain/linux_x86_newlib/bin/../lib/gcc/x86_64-nacl/4.4.3/../../../../x86_64-nacl/lib/../lib32/libcrt_common.a(lib_a-fclose.o)
 .comment       0x0000000000000000       0x67 /home/tx/workspace/nacl_sdk/pepper_29/toolchain/linux_x86_newlib/bin/../lib/gcc/x86_64-nacl/4.4.3/../../../../x86_64-nacl/lib/../lib32/libcrt_common.a(lib_a-fstatr.o)
 .comment       0x0000000000000000       0x67 /home/tx/workspace/nacl_sdk/pepper_29/toolchain/linux_x86_newlib/bin/../lib/gcc/x86_64-nacl/4.4.3/../../../../x86_64-nacl/lib/../lib32/libcrt_common.a(lib_a-isattyr.o)
 .comment       0x0000000000000000       0x67 /home/tx/workspace/nacl_sdk/pepper_29/toolchain/linux_x86_newlib/bin/../lib/gcc/x86_64-nacl/4.4.3/../../../../x86_64-nacl/lib/../lib32/libcrt_common.a(lib_a-lseekr.o)
 .comment       0x0000000000000000       0x67 /home/tx/workspace/nacl_sdk/pepper_29/toolchain/linux_x86_newlib/bin/../lib/gcc/x86_64-nacl/4.4.3/../../../../x86_64-nacl/lib/../lib32/libcrt_common.a(lib_a-readr.o)
 .comment       0x0000000000000000       0x67 /home/tx/workspace/nacl_sdk/pepper_29/toolchain/linux_x86_newlib/bin/../lib/gcc/x86_64-nacl/4.4.3/../../../../x86_64-nacl/lib/../lib32/libcrt_common.a(lib_a-reent.o)
 .comment       0x0000000000000000       0x67 /home/tx/workspace/nacl_sdk/pepper_29/toolchain/linux_x86_newlib/bin/../lib/gcc/x86_64-nacl/4.4.3/../../../../x86_64-nacl/lib/../lib32/libcrt_common.a(lib_a-isatty.o)
 .comment       0x0000000000000000       0x67 /home/tx/workspace/nacl_sdk/pepper_29/toolchain/linux_x86_newlib/bin/../lib/gcc/x86_64-nacl/4.4.3/../../../../x86_64-nacl/lib/../lib32/libcrt_common.a(lib_a-_isatty.o)
 .comment       0x0000000000000000       0x67 /home/tx/workspace/nacl_sdk/pepper_29/toolchain/linux_x86_newlib/bin/../lib/gcc/x86_64-nacl/4.4.3/../../../../x86_64-nacl/lib/../lib32/libcrt_common.a(lib_a-errno.o)
 .comment       0x0000000000000000       0x67 /home/tx/workspace/nacl_sdk/pepper_29/toolchain/linux_x86_newlib/bin/../lib/gcc/x86_64-nacl/4.4.3/../../../../x86_64-nacl/lib/../lib32/libnacl.a(nacl_irt.o)
 .comment       0x0000000000000000       0x67 /home/tx/workspace/nacl_sdk/pepper_29/toolchain/linux_x86_newlib/bin/../lib/gcc/x86_64-nacl/4.4.3/../../../../x86_64-nacl/lib/../lib32/libnacl.a(close.o)
 .comment       0x0000000000000000       0x67 /home/tx/workspace/nacl_sdk/pepper_29/toolchain/linux_x86_newlib/bin/../lib/gcc/x86_64-nacl/4.4.3/../../../../x86_64-nacl/lib/../lib32/libnacl.a(_exit.o)
 .comment       0x0000000000000000       0x67 /home/tx/workspace/nacl_sdk/pepper_29/toolchain/linux_x86_newlib/bin/../lib/gcc/x86_64-nacl/4.4.3/../../../../x86_64-nacl/lib/../lib32/libnacl.a(fstat.o)
 .comment       0x0000000000000000       0x67 /home/tx/workspace/nacl_sdk/pepper_29/toolchain/linux_x86_newlib/bin/../lib/gcc/x86_64-nacl/4.4.3/../../../../x86_64-nacl/lib/../lib32/libnacl.a(lseek.o)
 .comment       0x0000000000000000       0x67 /home/tx/workspace/nacl_sdk/pepper_29/toolchain/linux_x86_newlib/bin/../lib/gcc/x86_64-nacl/4.4.3/../../../../x86_64-nacl/lib/../lib32/libnacl.a(malloc.o)
 .comment       0x0000000000000000       0x67 /home/tx/workspace/nacl_sdk/pepper_29/toolchain/linux_x86_newlib/bin/../lib/gcc/x86_64-nacl/4.4.3/../../../../x86_64-nacl/lib/../lib32/libnacl.a(mmap.o)
 .comment       0x0000000000000000       0x67 /home/tx/workspace/nacl_sdk/pepper_29/toolchain/linux_x86_newlib/bin/../lib/gcc/x86_64-nacl/4.4.3/../../../../x86_64-nacl/lib/../lib32/libnacl.a(munmap.o)
 .comment       0x0000000000000000       0x67 /home/tx/workspace/nacl_sdk/pepper_29/toolchain/linux_x86_newlib/bin/../lib/gcc/x86_64-nacl/4.4.3/../../../../x86_64-nacl/lib/../lib32/libnacl.a(nacl_read_tp.o)
 .comment       0x0000000000000000       0x67 /home/tx/workspace/nacl_sdk/pepper_29/toolchain/linux_x86_newlib/bin/../lib/gcc/x86_64-nacl/4.4.3/../../../../x86_64-nacl/lib/../lib32/libnacl.a(read.o)
 .comment       0x0000000000000000       0x67 /home/tx/workspace/nacl_sdk/pepper_29/toolchain/linux_x86_newlib/bin/../lib/gcc/x86_64-nacl/4.4.3/../../../../x86_64-nacl/lib/../lib32/libnacl.a(pthread_initialize_minimal.o)
 .comment       0x0000000000000000       0x67 /home/tx/workspace/nacl_sdk/pepper_29/toolchain/linux_x86_newlib/bin/../lib/gcc/x86_64-nacl/4.4.3/../../../../x86_64-nacl/lib/../lib32/libnacl.a(sbrk.o)
 .comment       0x0000000000000000       0x67 /home/tx/workspace/nacl_sdk/pepper_29/toolchain/linux_x86_newlib/bin/../lib/gcc/x86_64-nacl/4.4.3/../../../../x86_64-nacl/lib/../lib32/libnacl.a(sched_yield.o)
 .comment       0x0000000000000000       0x67 /home/tx/workspace/nacl_sdk/pepper_29/toolchain/linux_x86_newlib/bin/../lib/gcc/x86_64-nacl/4.4.3/../../../../x86_64-nacl/lib/../lib32/libnacl.a(start.o)
 .comment       0x0000000000000000       0x67 /home/tx/workspace/nacl_sdk/pepper_29/toolchain/linux_x86_newlib/bin/../lib/gcc/x86_64-nacl/4.4.3/../../../../x86_64-nacl/lib/../lib32/libnacl.a(sysconf.o)
 .comment       0x0000000000000000       0x67 /home/tx/workspace/nacl_sdk/pepper_29/toolchain/linux_x86_newlib/bin/../lib/gcc/x86_64-nacl/4.4.3/../../../../x86_64-nacl/lib/../lib32/libnacl.a(tls.o)
 .comment       0x0000000000000000       0x67 /home/tx/workspace/nacl_sdk/pepper_29/toolchain/linux_x86_newlib/bin/../lib/gcc/x86_64-nacl/4.4.3/../../../../x86_64-nacl/lib/../lib32/libnacl.a(write.o)
 .comment       0x0000000000000000       0x67 /home/tx/workspace/nacl_sdk/pepper_29/toolchain/linux_x86_newlib/bin/../lib/gcc/x86_64-nacl/4.4.3/../../../../x86_64-nacl/lib/../lib32/libnacl.a(nacl_tls_init.o)
 .comment       0x0000000000000000       0x67 /home/tx/workspace/nacl_sdk/pepper_29/toolchain/linux_x86_newlib/bin/../lib/gcc/x86_64-nacl/4.4.3/../../../../x86_64-nacl/lib/../lib32/libcrt_common.a(lib_a-atexit.o)
 .comment       0x0000000000000000       0x67 /home/tx/workspace/nacl_sdk/pepper_29/toolchain/linux_x86_newlib/bin/../lib/gcc/x86_64-nacl/4.4.3/../../../../x86_64-nacl/lib/../lib32/libcrt_common.a(lib_a-fini.o)
 .comment       0x0000000000000000       0x67 /home/tx/workspace/nacl_sdk/pepper_29/toolchain/linux_x86_newlib/bin/../lib/gcc/x86_64-nacl/4.4.3/../../../../x86_64-nacl/lib/../lib32/libcrt_common.a(lib_a-fprintf.o)
 .comment       0x0000000000000000       0x67 /home/tx/workspace/nacl_sdk/pepper_29/toolchain/linux_x86_newlib/bin/../lib/gcc/x86_64-nacl/4.4.3/../../../../x86_64-nacl/lib/../lib32/libcrt_common.a(lib_a-init.o)
 .comment       0x0000000000000000       0x67 /home/tx/workspace/nacl_sdk/pepper_29/toolchain/linux_x86_newlib/bin/../lib/gcc/x86_64-nacl/4.4.3/../../../../x86_64-nacl/lib/../lib32/libcrt_common.a(lib_a-vfprintf.o)
 .comment       0x0000000000000000       0x67 /home/tx/workspace/nacl_sdk/pepper_29/toolchain/linux_x86_newlib/bin/../lib/gcc/x86_64-nacl/4.4.3/../../../../x86_64-nacl/lib/../lib32/libcrt_common.a(lib_a-dtoa.o)
 .comment       0x0000000000000000       0x67 /home/tx/workspace/nacl_sdk/pepper_29/toolchain/linux_x86_newlib/bin/../lib/gcc/x86_64-nacl/4.4.3/../../../../x86_64-nacl/lib/../lib32/libcrt_common.a(lib_a-mprec.o)
 .comment       0x0000000000000000       0x67 /home/tx/workspace/nacl_sdk/pepper_29/toolchain/linux_x86_newlib/bin/../lib/gcc/x86_64-nacl/4.4.3/../../../../x86_64-nacl/lib/../lib32/libcrt_common.a(lib_a-s_fpclassify.o)
 .comment       0x0000000000000000       0x67 /home/tx/workspace/nacl_sdk/pepper_29/toolchain/linux_x86_newlib/bin/../lib/gcc/x86_64-nacl/4.4.3/../../../../x86_64-nacl/lib/../lib32/libcrt_common.a(lib_a-s_frexp.o)
 .comment       0x0000000000000000       0x67 /home/tx/workspace/nacl_sdk/pepper_29/toolchain/linux_x86_newlib/bin/../lib/gcc/x86_64-nacl/4.4.3/32/libgcc.a(_udivdi3.o)
 .comment       0x0000000000000000       0x67 /home/tx/workspace/nacl_sdk/pepper_29/toolchain/linux_x86_newlib/bin/../lib/gcc/x86_64-nacl/4.4.3/32/libgcc.a(_umoddi3.o)
 .comment       0x0000000000000000       0x67 /home/tx/workspace/nacl_sdk/pepper_29/toolchain/linux_x86_newlib/bin/../lib/gcc/x86_64-nacl/4.4.3/32/crtend.o

.debug
 *(.debug)

.line
 *(.line)

.debug_srcinfo
 *(.debug_srcinfo)

.debug_sfnames
 *(.debug_sfnames)

.debug_aranges  0x0000000000000000      0x430
 *(.debug_aranges)
 .debug_aranges
                0x0000000000000000       0x28 /home/tx/workspace/nacl_sdk/pepper_29/toolchain/linux_x86_newlib/bin/../lib/gcc/x86_64-nacl/4.4.3/../../../../x86_64-nacl/lib/../lib32/crti.o
 .debug_aranges
                0x0000000000000028       0x20 newlib/Debug/tmp_x86_32.o
 .debug_aranges
                0x0000000000000048       0x20 /home/tx/workspace/nacl_sdk/pepper_29/toolchain/linux_x86_newlib/bin/../lib/gcc/x86_64-nacl/4.4.3/../../../../x86_64-nacl/lib/../lib32/libppapi_stub.a(plugin_main_irt.o)
 .debug_aranges
                0x0000000000000068       0x20 /home/tx/workspace/nacl_sdk/pepper_29/toolchain/linux_x86_newlib/bin/../lib/gcc/x86_64-nacl/4.4.3/../../../../x86_64-nacl/lib/../lib32/libppapi_stub.a(ppapi_plugin_main.o)
 .debug_aranges
                0x0000000000000088       0x20 /home/tx/workspace/nacl_sdk/pepper_29/toolchain/linux_x86_newlib/bin/../lib/gcc/x86_64-nacl/4.4.3/../../../../x86_64-nacl/lib/../lib32/libppapi_stub.a(ppapi_plugin_start.o)
 .debug_aranges
                0x00000000000000a8       0x20 /home/tx/workspace/nacl_sdk/pepper_29/toolchain/linux_x86_newlib/bin/../lib/gcc/x86_64-nacl/4.4.3/../../../../x86_64-nacl/lib/../lib32/libppapi_stub.a(thread_creator.o)
 .debug_aranges
                0x00000000000000c8       0x20 /home/tx/workspace/nacl_sdk/pepper_29/toolchain/linux_x86_newlib/bin/../lib/gcc/x86_64-nacl/4.4.3/../../../../x86_64-nacl/lib/../lib32/libpthread.a(nc_thread.o)
 .debug_aranges
                0x00000000000000e8       0x20 /home/tx/workspace/nacl_sdk/pepper_29/toolchain/linux_x86_newlib/bin/../lib/gcc/x86_64-nacl/4.4.3/../../../../x86_64-nacl/lib/../lib32/libpthread.a(nc_mutex.o)
 .debug_aranges
                0x0000000000000108       0x20 /home/tx/workspace/nacl_sdk/pepper_29/toolchain/linux_x86_newlib/bin/../lib/gcc/x86_64-nacl/4.4.3/../../../../x86_64-nacl/lib/../lib32/libpthread.a(nc_condvar.o)
 .debug_aranges
                0x0000000000000128       0x20 /home/tx/workspace/nacl_sdk/pepper_29/toolchain/linux_x86_newlib/bin/../lib/gcc/x86_64-nacl/4.4.3/../../../../x86_64-nacl/lib/../lib32/libpthread.a(nc_init_irt.o)
 .debug_aranges
                0x0000000000000148       0x20 /home/tx/workspace/nacl_sdk/pepper_29/toolchain/linux_x86_newlib/bin/../lib/gcc/x86_64-nacl/4.4.3/../../../../x86_64-nacl/lib/../lib32/libpthread.a(dynamic_annotations.o)
 .debug_aranges
                0x0000000000000168       0x20 /home/tx/workspace/nacl_sdk/pepper_29/toolchain/linux_x86_newlib/bin/../lib/gcc/x86_64-nacl/4.4.3/../../../../x86_64-nacl/lib/../lib32/libpthread.a(futex.o)
 .debug_aranges
                0x0000000000000188       0x20 /home/tx/workspace/nacl_sdk/pepper_29/toolchain/linux_x86_newlib/bin/../lib/gcc/x86_64-nacl/4.4.3/../../../../x86_64-nacl/lib/../lib32/libnacl.a(nacl_irt.o)
 .debug_aranges
                0x00000000000001a8       0x20 /home/tx/workspace/nacl_sdk/pepper_29/toolchain/linux_x86_newlib/bin/../lib/gcc/x86_64-nacl/4.4.3/../../../../x86_64-nacl/lib/../lib32/libnacl.a(close.o)
 .debug_aranges
                0x00000000000001c8       0x20 /home/tx/workspace/nacl_sdk/pepper_29/toolchain/linux_x86_newlib/bin/../lib/gcc/x86_64-nacl/4.4.3/../../../../x86_64-nacl/lib/../lib32/libnacl.a(_exit.o)
 .debug_aranges
                0x00000000000001e8       0x20 /home/tx/workspace/nacl_sdk/pepper_29/toolchain/linux_x86_newlib/bin/../lib/gcc/x86_64-nacl/4.4.3/../../../../x86_64-nacl/lib/../lib32/libnacl.a(fstat.o)
 .debug_aranges
                0x0000000000000208       0x20 /home/tx/workspace/nacl_sdk/pepper_29/toolchain/linux_x86_newlib/bin/../lib/gcc/x86_64-nacl/4.4.3/../../../../x86_64-nacl/lib/../lib32/libnacl.a(lseek.o)
 .debug_aranges
                0x0000000000000228       0x20 /home/tx/workspace/nacl_sdk/pepper_29/toolchain/linux_x86_newlib/bin/../lib/gcc/x86_64-nacl/4.4.3/../../../../x86_64-nacl/lib/../lib32/libnacl.a(malloc.o)
 .debug_aranges
                0x0000000000000248       0x20 /home/tx/workspace/nacl_sdk/pepper_29/toolchain/linux_x86_newlib/bin/../lib/gcc/x86_64-nacl/4.4.3/../../../../x86_64-nacl/lib/../lib32/libnacl.a(mmap.o)
 .debug_aranges
                0x0000000000000268       0x20 /home/tx/workspace/nacl_sdk/pepper_29/toolchain/linux_x86_newlib/bin/../lib/gcc/x86_64-nacl/4.4.3/../../../../x86_64-nacl/lib/../lib32/libnacl.a(munmap.o)
 .debug_aranges
                0x0000000000000288       0x20 /home/tx/workspace/nacl_sdk/pepper_29/toolchain/linux_x86_newlib/bin/../lib/gcc/x86_64-nacl/4.4.3/../../../../x86_64-nacl/lib/../lib32/libnacl.a(nacl_read_tp.o)
 .debug_aranges
                0x00000000000002a8       0x20 /home/tx/workspace/nacl_sdk/pepper_29/toolchain/linux_x86_newlib/bin/../lib/gcc/x86_64-nacl/4.4.3/../../../../x86_64-nacl/lib/../lib32/libnacl.a(read.o)
 .debug_aranges
                0x00000000000002c8       0x20 /home/tx/workspace/nacl_sdk/pepper_29/toolchain/linux_x86_newlib/bin/../lib/gcc/x86_64-nacl/4.4.3/../../../../x86_64-nacl/lib/../lib32/libnacl.a(pthread_initialize_minimal.o)
 .debug_aranges
                0x00000000000002e8       0x20 /home/tx/workspace/nacl_sdk/pepper_29/toolchain/linux_x86_newlib/bin/../lib/gcc/x86_64-nacl/4.4.3/../../../../x86_64-nacl/lib/../lib32/libnacl.a(sbrk.o)
 .debug_aranges
                0x0000000000000308       0x20 /home/tx/workspace/nacl_sdk/pepper_29/toolchain/linux_x86_newlib/bin/../lib/gcc/x86_64-nacl/4.4.3/../../../../x86_64-nacl/lib/../lib32/libnacl.a(sched_yield.o)
 .debug_aranges
                0x0000000000000328       0x20 /home/tx/workspace/nacl_sdk/pepper_29/toolchain/linux_x86_newlib/bin/../lib/gcc/x86_64-nacl/4.4.3/../../../../x86_64-nacl/lib/../lib32/libnacl.a(start.o)
 .debug_aranges
                0x0000000000000348       0x20 /home/tx/workspace/nacl_sdk/pepper_29/toolchain/linux_x86_newlib/bin/../lib/gcc/x86_64-nacl/4.4.3/../../../../x86_64-nacl/lib/../lib32/libnacl.a(sysconf.o)
 .debug_aranges
                0x0000000000000368       0x20 /home/tx/workspace/nacl_sdk/pepper_29/toolchain/linux_x86_newlib/bin/../lib/gcc/x86_64-nacl/4.4.3/../../../../x86_64-nacl/lib/../lib32/libnacl.a(tls.o)
 .debug_aranges
                0x0000000000000388       0x20 /home/tx/workspace/nacl_sdk/pepper_29/toolchain/linux_x86_newlib/bin/../lib/gcc/x86_64-nacl/4.4.3/../../../../x86_64-nacl/lib/../lib32/libnacl.a(write.o)
 .debug_aranges
                0x00000000000003a8       0x20 /home/tx/workspace/nacl_sdk/pepper_29/toolchain/linux_x86_newlib/bin/../lib/gcc/x86_64-nacl/4.4.3/../../../../x86_64-nacl/lib/../lib32/libnacl.a(nacl_tls_init.o)
 .debug_aranges
                0x00000000000003c8       0x20 /home/tx/workspace/nacl_sdk/pepper_29/toolchain/linux_x86_newlib/bin/../lib/gcc/x86_64-nacl/4.4.3/32/libgcc.a(_udivdi3.o)
 .debug_aranges
                0x00000000000003e8       0x20 /home/tx/workspace/nacl_sdk/pepper_29/toolchain/linux_x86_newlib/bin/../lib/gcc/x86_64-nacl/4.4.3/32/libgcc.a(_umoddi3.o)
 .debug_aranges
                0x0000000000000408       0x28 /home/tx/workspace/nacl_sdk/pepper_29/toolchain/linux_x86_newlib/bin/../lib/gcc/x86_64-nacl/4.4.3/../../../../x86_64-nacl/lib/../lib32/crtn.o

.debug_pubnames
                0x0000000000000000     0x11f9
 *(.debug_pubnames)
 .debug_pubnames
                0x0000000000000000       0x6a newlib/Debug/tmp_x86_32.o
 .debug_pubnames
                0x000000000000006a       0x1b /home/tx/workspace/nacl_sdk/pepper_29/toolchain/linux_x86_newlib/bin/../lib/gcc/x86_64-nacl/4.4.3/../../../../x86_64-nacl/lib/../lib32/libppapi_stub.a(plugin_main_irt.o)
 .debug_pubnames
                0x0000000000000085       0x26 /home/tx/workspace/nacl_sdk/pepper_29/toolchain/linux_x86_newlib/bin/../lib/gcc/x86_64-nacl/4.4.3/../../../../x86_64-nacl/lib/../lib32/libppapi_stub.a(ppapi_plugin_main.o)
 .debug_pubnames
                0x00000000000000ab       0x27 /home/tx/workspace/nacl_sdk/pepper_29/toolchain/linux_x86_newlib/bin/../lib/gcc/x86_64-nacl/4.4.3/../../../../x86_64-nacl/lib/../lib32/libppapi_stub.a(ppapi_plugin_start.o)
 .debug_pubnames
                0x00000000000000d2       0x35 /home/tx/workspace/nacl_sdk/pepper_29/toolchain/linux_x86_newlib/bin/../lib/gcc/x86_64-nacl/4.4.3/../../../../x86_64-nacl/lib/../lib32/libppapi_stub.a(thread_creator.o)
 .debug_pubnames
                0x0000000000000107      0x426 /home/tx/workspace/nacl_sdk/pepper_29/toolchain/linux_x86_newlib/bin/../lib/gcc/x86_64-nacl/4.4.3/../../../../x86_64-nacl/lib/../lib32/libpthread.a(nc_thread.o)
 .debug_pubnames
                0x000000000000052d      0x113 /home/tx/workspace/nacl_sdk/pepper_29/toolchain/linux_x86_newlib/bin/../lib/gcc/x86_64-nacl/4.4.3/../../../../x86_64-nacl/lib/../lib32/libpthread.a(nc_mutex.o)
 .debug_pubnames
                0x0000000000000640       0xa9 /home/tx/workspace/nacl_sdk/pepper_29/toolchain/linux_x86_newlib/bin/../lib/gcc/x86_64-nacl/4.4.3/../../../../x86_64-nacl/lib/../lib32/libpthread.a(nc_condvar.o)
 .debug_pubnames
                0x00000000000006e9       0x67 /home/tx/workspace/nacl_sdk/pepper_29/toolchain/linux_x86_newlib/bin/../lib/gcc/x86_64-nacl/4.4.3/../../../../x86_64-nacl/lib/../lib32/libpthread.a(nc_init_irt.o)
 .debug_pubnames
                0x0000000000000750      0x4a6 /home/tx/workspace/nacl_sdk/pepper_29/toolchain/linux_x86_newlib/bin/../lib/gcc/x86_64-nacl/4.4.3/../../../../x86_64-nacl/lib/../lib32/libpthread.a(dynamic_annotations.o)
 .debug_pubnames
                0x0000000000000bf6       0x69 /home/tx/workspace/nacl_sdk/pepper_29/toolchain/linux_x86_newlib/bin/../lib/gcc/x86_64-nacl/4.4.3/../../../../x86_64-nacl/lib/../lib32/libpthread.a(futex.o)
 .debug_pubnames
                0x0000000000000c5f      0x15c /home/tx/workspace/nacl_sdk/pepper_29/toolchain/linux_x86_newlib/bin/../lib/gcc/x86_64-nacl/4.4.3/../../../../x86_64-nacl/lib/../lib32/libnacl.a(nacl_irt.o)
 .debug_pubnames
                0x0000000000000dbb       0x1c /home/tx/workspace/nacl_sdk/pepper_29/toolchain/linux_x86_newlib/bin/../lib/gcc/x86_64-nacl/4.4.3/../../../../x86_64-nacl/lib/../lib32/libnacl.a(close.o)
 .debug_pubnames
                0x0000000000000dd7       0x1c /home/tx/workspace/nacl_sdk/pepper_29/toolchain/linux_x86_newlib/bin/../lib/gcc/x86_64-nacl/4.4.3/../../../../x86_64-nacl/lib/../lib32/libnacl.a(_exit.o)
 .debug_pubnames
                0x0000000000000df3       0x1c /home/tx/workspace/nacl_sdk/pepper_29/toolchain/linux_x86_newlib/bin/../lib/gcc/x86_64-nacl/4.4.3/../../../../x86_64-nacl/lib/../lib32/libnacl.a(fstat.o)
 .debug_pubnames
                0x0000000000000e0f       0x1c /home/tx/workspace/nacl_sdk/pepper_29/toolchain/linux_x86_newlib/bin/../lib/gcc/x86_64-nacl/4.4.3/../../../../x86_64-nacl/lib/../lib32/libnacl.a(lseek.o)
 .debug_pubnames
                0x0000000000000e2b      0x1b7 /home/tx/workspace/nacl_sdk/pepper_29/toolchain/linux_x86_newlib/bin/../lib/gcc/x86_64-nacl/4.4.3/../../../../x86_64-nacl/lib/../lib32/libnacl.a(malloc.o)
 .debug_pubnames
                0x0000000000000fe2       0x1b /home/tx/workspace/nacl_sdk/pepper_29/toolchain/linux_x86_newlib/bin/../lib/gcc/x86_64-nacl/4.4.3/../../../../x86_64-nacl/lib/../lib32/libnacl.a(mmap.o)
 .debug_pubnames
                0x0000000000000ffd       0x1d /home/tx/workspace/nacl_sdk/pepper_29/toolchain/linux_x86_newlib/bin/../lib/gcc/x86_64-nacl/4.4.3/../../../../x86_64-nacl/lib/../lib32/libnacl.a(munmap.o)
 .debug_pubnames
                0x000000000000101a       0x25 /home/tx/workspace/nacl_sdk/pepper_29/toolchain/linux_x86_newlib/bin/../lib/gcc/x86_64-nacl/4.4.3/../../../../x86_64-nacl/lib/../lib32/libnacl.a(nacl_read_tp.o)
 .debug_pubnames
                0x000000000000103f       0x1b /home/tx/workspace/nacl_sdk/pepper_29/toolchain/linux_x86_newlib/bin/../lib/gcc/x86_64-nacl/4.4.3/../../../../x86_64-nacl/lib/../lib32/libnacl.a(read.o)
 .debug_pubnames
                0x000000000000105a       0x33 /home/tx/workspace/nacl_sdk/pepper_29/toolchain/linux_x86_newlib/bin/../lib/gcc/x86_64-nacl/4.4.3/../../../../x86_64-nacl/lib/../lib32/libnacl.a(pthread_initialize_minimal.o)
 .debug_pubnames
                0x000000000000108d       0x1b /home/tx/workspace/nacl_sdk/pepper_29/toolchain/linux_x86_newlib/bin/../lib/gcc/x86_64-nacl/4.4.3/../../../../x86_64-nacl/lib/../lib32/libnacl.a(sbrk.o)
 .debug_pubnames
                0x00000000000010a8       0x22 /home/tx/workspace/nacl_sdk/pepper_29/toolchain/linux_x86_newlib/bin/../lib/gcc/x86_64-nacl/4.4.3/../../../../x86_64-nacl/lib/../lib32/libnacl.a(sched_yield.o)
 .debug_pubnames
                0x00000000000010ca       0x41 /home/tx/workspace/nacl_sdk/pepper_29/toolchain/linux_x86_newlib/bin/../lib/gcc/x86_64-nacl/4.4.3/../../../../x86_64-nacl/lib/../lib32/libnacl.a(start.o)
 .debug_pubnames
                0x000000000000110b       0x1e /home/tx/workspace/nacl_sdk/pepper_29/toolchain/linux_x86_newlib/bin/../lib/gcc/x86_64-nacl/4.4.3/../../../../x86_64-nacl/lib/../lib32/libnacl.a(sysconf.o)
 .debug_pubnames
                0x0000000000001129       0x50 /home/tx/workspace/nacl_sdk/pepper_29/toolchain/linux_x86_newlib/bin/../lib/gcc/x86_64-nacl/4.4.3/../../../../x86_64-nacl/lib/../lib32/libnacl.a(tls.o)
 .debug_pubnames
                0x0000000000001179       0x1c /home/tx/workspace/nacl_sdk/pepper_29/toolchain/linux_x86_newlib/bin/../lib/gcc/x86_64-nacl/4.4.3/../../../../x86_64-nacl/lib/../lib32/libnacl.a(write.o)
 .debug_pubnames
                0x0000000000001195       0x24 /home/tx/workspace/nacl_sdk/pepper_29/toolchain/linux_x86_newlib/bin/../lib/gcc/x86_64-nacl/4.4.3/../../../../x86_64-nacl/lib/../lib32/libnacl.a(nacl_tls_init.o)
 .debug_pubnames
                0x00000000000011b9       0x20 /home/tx/workspace/nacl_sdk/pepper_29/toolchain/linux_x86_newlib/bin/../lib/gcc/x86_64-nacl/4.4.3/32/libgcc.a(_udivdi3.o)
 .debug_pubnames
                0x00000000000011d9       0x20 /home/tx/workspace/nacl_sdk/pepper_29/toolchain/linux_x86_newlib/bin/../lib/gcc/x86_64-nacl/4.4.3/32/libgcc.a(_umoddi3.o)

.debug_info     0x0000000000000000     0xbe7f
 *(.debug_info .gnu.linkonce.wi.*)
 .debug_info    0x0000000000000000       0x89 /home/tx/workspace/nacl_sdk/pepper_29/toolchain/linux_x86_newlib/bin/../lib/gcc/x86_64-nacl/4.4.3/../../../../x86_64-nacl/lib/../lib32/crti.o
 .debug_info    0x0000000000000089      0x952 newlib/Debug/tmp_x86_32.o
 .debug_info    0x00000000000009db       0x8f /home/tx/workspace/nacl_sdk/pepper_29/toolchain/linux_x86_newlib/bin/../lib/gcc/x86_64-nacl/4.4.3/../../../../x86_64-nacl/lib/../lib32/libppapi_stub.a(plugin_main_irt.o)
 .debug_info    0x0000000000000a6a      0x14a /home/tx/workspace/nacl_sdk/pepper_29/toolchain/linux_x86_newlib/bin/../lib/gcc/x86_64-nacl/4.4.3/../../../../x86_64-nacl/lib/../lib32/libppapi_stub.a(ppapi_plugin_main.o)
 .debug_info    0x0000000000000bb4      0x3ce /home/tx/workspace/nacl_sdk/pepper_29/toolchain/linux_x86_newlib/bin/../lib/gcc/x86_64-nacl/4.4.3/../../../../x86_64-nacl/lib/../lib32/libppapi_stub.a(ppapi_plugin_start.o)
 .debug_info    0x0000000000000f82      0x2d1 /home/tx/workspace/nacl_sdk/pepper_29/toolchain/linux_x86_newlib/bin/../lib/gcc/x86_64-nacl/4.4.3/../../../../x86_64-nacl/lib/../lib32/libppapi_stub.a(thread_creator.o)
 .debug_info    0x0000000000001253     0x1382 /home/tx/workspace/nacl_sdk/pepper_29/toolchain/linux_x86_newlib/bin/../lib/gcc/x86_64-nacl/4.4.3/../../../../x86_64-nacl/lib/../lib32/libpthread.a(nc_thread.o)
 .debug_info    0x00000000000025d5      0x67c /home/tx/workspace/nacl_sdk/pepper_29/toolchain/linux_x86_newlib/bin/../lib/gcc/x86_64-nacl/4.4.3/../../../../x86_64-nacl/lib/../lib32/libpthread.a(nc_mutex.o)
 .debug_info    0x0000000000002c51      0x512 /home/tx/workspace/nacl_sdk/pepper_29/toolchain/linux_x86_newlib/bin/../lib/gcc/x86_64-nacl/4.4.3/../../../../x86_64-nacl/lib/../lib32/libpthread.a(nc_condvar.o)
 .debug_info    0x0000000000003163      0x34b /home/tx/workspace/nacl_sdk/pepper_29/toolchain/linux_x86_newlib/bin/../lib/gcc/x86_64-nacl/4.4.3/../../../../x86_64-nacl/lib/../lib32/libpthread.a(nc_init_irt.o)
 .debug_info    0x00000000000034ae      0xaf8 /home/tx/workspace/nacl_sdk/pepper_29/toolchain/linux_x86_newlib/bin/../lib/gcc/x86_64-nacl/4.4.3/../../../../x86_64-nacl/lib/../lib32/libpthread.a(dynamic_annotations.o)
 .debug_info    0x0000000000003fa6      0x540 /home/tx/workspace/nacl_sdk/pepper_29/toolchain/linux_x86_newlib/bin/../lib/gcc/x86_64-nacl/4.4.3/../../../../x86_64-nacl/lib/../lib32/libpthread.a(futex.o)
 .debug_info    0x00000000000044e6      0xa56 /home/tx/workspace/nacl_sdk/pepper_29/toolchain/linux_x86_newlib/bin/../lib/gcc/x86_64-nacl/4.4.3/../../../../x86_64-nacl/lib/../lib32/libnacl.a(nacl_irt.o)
 .debug_info    0x0000000000004f3c      0x295 /home/tx/workspace/nacl_sdk/pepper_29/toolchain/linux_x86_newlib/bin/../lib/gcc/x86_64-nacl/4.4.3/../../../../x86_64-nacl/lib/../lib32/libnacl.a(close.o)
 .debug_info    0x00000000000051d1      0x231 /home/tx/workspace/nacl_sdk/pepper_29/toolchain/linux_x86_newlib/bin/../lib/gcc/x86_64-nacl/4.4.3/../../../../x86_64-nacl/lib/../lib32/libnacl.a(_exit.o)
 .debug_info    0x0000000000005402      0x464 /home/tx/workspace/nacl_sdk/pepper_29/toolchain/linux_x86_newlib/bin/../lib/gcc/x86_64-nacl/4.4.3/../../../../x86_64-nacl/lib/../lib32/libnacl.a(fstat.o)
 .debug_info    0x0000000000005866      0x2c0 /home/tx/workspace/nacl_sdk/pepper_29/toolchain/linux_x86_newlib/bin/../lib/gcc/x86_64-nacl/4.4.3/../../../../x86_64-nacl/lib/../lib32/libnacl.a(lseek.o)
 .debug_info    0x0000000000005b26     0x410d /home/tx/workspace/nacl_sdk/pepper_29/toolchain/linux_x86_newlib/bin/../lib/gcc/x86_64-nacl/4.4.3/../../../../x86_64-nacl/lib/../lib32/libnacl.a(malloc.o)
 .debug_info    0x0000000000009c33      0x1fe /home/tx/workspace/nacl_sdk/pepper_29/toolchain/linux_x86_newlib/bin/../lib/gcc/x86_64-nacl/4.4.3/../../../../x86_64-nacl/lib/../lib32/libnacl.a(mmap.o)
 .debug_info    0x0000000000009e31      0x1c5 /home/tx/workspace/nacl_sdk/pepper_29/toolchain/linux_x86_newlib/bin/../lib/gcc/x86_64-nacl/4.4.3/../../../../x86_64-nacl/lib/../lib32/libnacl.a(munmap.o)
 .debug_info    0x0000000000009ff6       0xa0 /home/tx/workspace/nacl_sdk/pepper_29/toolchain/linux_x86_newlib/bin/../lib/gcc/x86_64-nacl/4.4.3/../../../../x86_64-nacl/lib/../lib32/libnacl.a(nacl_read_tp.o)
 .debug_info    0x000000000000a096      0x2c0 /home/tx/workspace/nacl_sdk/pepper_29/toolchain/linux_x86_newlib/bin/../lib/gcc/x86_64-nacl/4.4.3/../../../../x86_64-nacl/lib/../lib32/libnacl.a(read.o)
 .debug_info    0x000000000000a356       0xcf /home/tx/workspace/nacl_sdk/pepper_29/toolchain/linux_x86_newlib/bin/../lib/gcc/x86_64-nacl/4.4.3/../../../../x86_64-nacl/lib/../lib32/libnacl.a(pthread_initialize_minimal.o)
 .debug_info    0x000000000000a425      0x1f1 /home/tx/workspace/nacl_sdk/pepper_29/toolchain/linux_x86_newlib/bin/../lib/gcc/x86_64-nacl/4.4.3/../../../../x86_64-nacl/lib/../lib32/libnacl.a(sbrk.o)
 .debug_info    0x000000000000a616      0x236 /home/tx/workspace/nacl_sdk/pepper_29/toolchain/linux_x86_newlib/bin/../lib/gcc/x86_64-nacl/4.4.3/../../../../x86_64-nacl/lib/../lib32/libnacl.a(sched_yield.o)
 .debug_info    0x000000000000a84c      0x2e7 /home/tx/workspace/nacl_sdk/pepper_29/toolchain/linux_x86_newlib/bin/../lib/gcc/x86_64-nacl/4.4.3/../../../../x86_64-nacl/lib/../lib32/libnacl.a(start.o)
 .debug_info    0x000000000000ab33      0x253 /home/tx/workspace/nacl_sdk/pepper_29/toolchain/linux_x86_newlib/bin/../lib/gcc/x86_64-nacl/4.4.3/../../../../x86_64-nacl/lib/../lib32/libnacl.a(sysconf.o)
 .debug_info    0x000000000000ad86      0x71e /home/tx/workspace/nacl_sdk/pepper_29/toolchain/linux_x86_newlib/bin/../lib/gcc/x86_64-nacl/4.4.3/../../../../x86_64-nacl/lib/../lib32/libnacl.a(tls.o)
 .debug_info    0x000000000000b4a4      0x2c0 /home/tx/workspace/nacl_sdk/pepper_29/toolchain/linux_x86_newlib/bin/../lib/gcc/x86_64-nacl/4.4.3/../../../../x86_64-nacl/lib/../lib32/libnacl.a(write.o)
 .debug_info    0x000000000000b764       0xfc /home/tx/workspace/nacl_sdk/pepper_29/toolchain/linux_x86_newlib/bin/../lib/gcc/x86_64-nacl/4.4.3/../../../../x86_64-nacl/lib/../lib32/libnacl.a(nacl_tls_init.o)
 .debug_info    0x000000000000b860      0x2c6 /home/tx/workspace/nacl_sdk/pepper_29/toolchain/linux_x86_newlib/bin/../lib/gcc/x86_64-nacl/4.4.3/32/libgcc.a(_udivdi3.o)
 .debug_info    0x000000000000bb26      0x2d0 /home/tx/workspace/nacl_sdk/pepper_29/toolchain/linux_x86_newlib/bin/../lib/gcc/x86_64-nacl/4.4.3/32/libgcc.a(_umoddi3.o)
 .debug_info    0x000000000000bdf6       0x89 /home/tx/workspace/nacl_sdk/pepper_29/toolchain/linux_x86_newlib/bin/../lib/gcc/x86_64-nacl/4.4.3/../../../../x86_64-nacl/lib/../lib32/crtn.o

.debug_abbrev   0x0000000000000000     0x2811
 *(.debug_abbrev)
 .debug_abbrev  0x0000000000000000       0x12 /home/tx/workspace/nacl_sdk/pepper_29/toolchain/linux_x86_newlib/bin/../lib/gcc/x86_64-nacl/4.4.3/../../../../x86_64-nacl/lib/../lib32/crti.o
 .debug_abbrev  0x0000000000000012      0x18b newlib/Debug/tmp_x86_32.o
 .debug_abbrev  0x000000000000019d       0x4a /home/tx/workspace/nacl_sdk/pepper_29/toolchain/linux_x86_newlib/bin/../lib/gcc/x86_64-nacl/4.4.3/../../../../x86_64-nacl/lib/../lib32/libppapi_stub.a(plugin_main_irt.o)
 .debug_abbrev  0x00000000000001e7       0xc0 /home/tx/workspace/nacl_sdk/pepper_29/toolchain/linux_x86_newlib/bin/../lib/gcc/x86_64-nacl/4.4.3/../../../../x86_64-nacl/lib/../lib32/libppapi_stub.a(ppapi_plugin_main.o)
 .debug_abbrev  0x00000000000002a7      0x1b2 /home/tx/workspace/nacl_sdk/pepper_29/toolchain/linux_x86_newlib/bin/../lib/gcc/x86_64-nacl/4.4.3/../../../../x86_64-nacl/lib/../lib32/libppapi_stub.a(ppapi_plugin_start.o)
 .debug_abbrev  0x0000000000000459      0x10e /home/tx/workspace/nacl_sdk/pepper_29/toolchain/linux_x86_newlib/bin/../lib/gcc/x86_64-nacl/4.4.3/../../../../x86_64-nacl/lib/../lib32/libppapi_stub.a(thread_creator.o)
 .debug_abbrev  0x0000000000000567      0x418 /home/tx/workspace/nacl_sdk/pepper_29/toolchain/linux_x86_newlib/bin/../lib/gcc/x86_64-nacl/4.4.3/../../../../x86_64-nacl/lib/../lib32/libpthread.a(nc_thread.o)
 .debug_abbrev  0x000000000000097f      0x207 /home/tx/workspace/nacl_sdk/pepper_29/toolchain/linux_x86_newlib/bin/../lib/gcc/x86_64-nacl/4.4.3/../../../../x86_64-nacl/lib/../lib32/libpthread.a(nc_mutex.o)
 .debug_abbrev  0x0000000000000b86      0x18c /home/tx/workspace/nacl_sdk/pepper_29/toolchain/linux_x86_newlib/bin/../lib/gcc/x86_64-nacl/4.4.3/../../../../x86_64-nacl/lib/../lib32/libpthread.a(nc_condvar.o)
 .debug_abbrev  0x0000000000000d12       0xd0 /home/tx/workspace/nacl_sdk/pepper_29/toolchain/linux_x86_newlib/bin/../lib/gcc/x86_64-nacl/4.4.3/../../../../x86_64-nacl/lib/../lib32/libpthread.a(nc_init_irt.o)
 .debug_abbrev  0x0000000000000de2       0xfc /home/tx/workspace/nacl_sdk/pepper_29/toolchain/linux_x86_newlib/bin/../lib/gcc/x86_64-nacl/4.4.3/../../../../x86_64-nacl/lib/../lib32/libpthread.a(dynamic_annotations.o)
 .debug_abbrev  0x0000000000000ede      0x1aa /home/tx/workspace/nacl_sdk/pepper_29/toolchain/linux_x86_newlib/bin/../lib/gcc/x86_64-nacl/4.4.3/../../../../x86_64-nacl/lib/../lib32/libpthread.a(futex.o)
 .debug_abbrev  0x0000000000001088      0x247 /home/tx/workspace/nacl_sdk/pepper_29/toolchain/linux_x86_newlib/bin/../lib/gcc/x86_64-nacl/4.4.3/../../../../x86_64-nacl/lib/../lib32/libnacl.a(nacl_irt.o)
 .debug_abbrev  0x00000000000012cf       0xe5 /home/tx/workspace/nacl_sdk/pepper_29/toolchain/linux_x86_newlib/bin/../lib/gcc/x86_64-nacl/4.4.3/../../../../x86_64-nacl/lib/../lib32/libnacl.a(close.o)
 .debug_abbrev  0x00000000000013b4       0xcb /home/tx/workspace/nacl_sdk/pepper_29/toolchain/linux_x86_newlib/bin/../lib/gcc/x86_64-nacl/4.4.3/../../../../x86_64-nacl/lib/../lib32/libnacl.a(_exit.o)
 .debug_abbrev  0x000000000000147f       0xe5 /home/tx/workspace/nacl_sdk/pepper_29/toolchain/linux_x86_newlib/bin/../lib/gcc/x86_64-nacl/4.4.3/../../../../x86_64-nacl/lib/../lib32/libnacl.a(fstat.o)
 .debug_abbrev  0x0000000000001564       0xe5 /home/tx/workspace/nacl_sdk/pepper_29/toolchain/linux_x86_newlib/bin/../lib/gcc/x86_64-nacl/4.4.3/../../../../x86_64-nacl/lib/../lib32/libnacl.a(lseek.o)
 .debug_abbrev  0x0000000000001649      0x3c9 /home/tx/workspace/nacl_sdk/pepper_29/toolchain/linux_x86_newlib/bin/../lib/gcc/x86_64-nacl/4.4.3/../../../../x86_64-nacl/lib/../lib32/libnacl.a(malloc.o)
 .debug_abbrev  0x0000000000001a12       0xd7 /home/tx/workspace/nacl_sdk/pepper_29/toolchain/linux_x86_newlib/bin/../lib/gcc/x86_64-nacl/4.4.3/../../../../x86_64-nacl/lib/../lib32/libnacl.a(mmap.o)
 .debug_abbrev  0x0000000000001ae9       0xc8 /home/tx/workspace/nacl_sdk/pepper_29/toolchain/linux_x86_newlib/bin/../lib/gcc/x86_64-nacl/4.4.3/../../../../x86_64-nacl/lib/../lib32/libnacl.a(munmap.o)
 .debug_abbrev  0x0000000000001bb1       0x60 /home/tx/workspace/nacl_sdk/pepper_29/toolchain/linux_x86_newlib/bin/../lib/gcc/x86_64-nacl/4.4.3/../../../../x86_64-nacl/lib/../lib32/libnacl.a(nacl_read_tp.o)
 .debug_abbrev  0x0000000000001c11       0xf4 /home/tx/workspace/nacl_sdk/pepper_29/toolchain/linux_x86_newlib/bin/../lib/gcc/x86_64-nacl/4.4.3/../../../../x86_64-nacl/lib/../lib32/libnacl.a(read.o)
 .debug_abbrev  0x0000000000001d05       0x96 /home/tx/workspace/nacl_sdk/pepper_29/toolchain/linux_x86_newlib/bin/../lib/gcc/x86_64-nacl/4.4.3/../../../../x86_64-nacl/lib/../lib32/libnacl.a(pthread_initialize_minimal.o)
 .debug_abbrev  0x0000000000001d9b       0xd7 /home/tx/workspace/nacl_sdk/pepper_29/toolchain/linux_x86_newlib/bin/../lib/gcc/x86_64-nacl/4.4.3/../../../../x86_64-nacl/lib/../lib32/libnacl.a(sbrk.o)
 .debug_abbrev  0x0000000000001e72       0xcd /home/tx/workspace/nacl_sdk/pepper_29/toolchain/linux_x86_newlib/bin/../lib/gcc/x86_64-nacl/4.4.3/../../../../x86_64-nacl/lib/../lib32/libnacl.a(sched_yield.o)
 .debug_abbrev  0x0000000000001f3f      0x185 /home/tx/workspace/nacl_sdk/pepper_29/toolchain/linux_x86_newlib/bin/../lib/gcc/x86_64-nacl/4.4.3/../../../../x86_64-nacl/lib/../lib32/libnacl.a(start.o)
 .debug_abbrev  0x00000000000020c4       0xdc /home/tx/workspace/nacl_sdk/pepper_29/toolchain/linux_x86_newlib/bin/../lib/gcc/x86_64-nacl/4.4.3/../../../../x86_64-nacl/lib/../lib32/libnacl.a(sysconf.o)
 .debug_abbrev  0x00000000000021a0      0x243 /home/tx/workspace/nacl_sdk/pepper_29/toolchain/linux_x86_newlib/bin/../lib/gcc/x86_64-nacl/4.4.3/../../../../x86_64-nacl/lib/../lib32/libnacl.a(tls.o)
 .debug_abbrev  0x00000000000023e3       0xf4 /home/tx/workspace/nacl_sdk/pepper_29/toolchain/linux_x86_newlib/bin/../lib/gcc/x86_64-nacl/4.4.3/../../../../x86_64-nacl/lib/../lib32/libnacl.a(write.o)
 .debug_abbrev  0x00000000000024d7       0xb5 /home/tx/workspace/nacl_sdk/pepper_29/toolchain/linux_x86_newlib/bin/../lib/gcc/x86_64-nacl/4.4.3/../../../../x86_64-nacl/lib/../lib32/libnacl.a(nacl_tls_init.o)
 .debug_abbrev  0x000000000000258c      0x132 /home/tx/workspace/nacl_sdk/pepper_29/toolchain/linux_x86_newlib/bin/../lib/gcc/x86_64-nacl/4.4.3/32/libgcc.a(_udivdi3.o)
 .debug_abbrev  0x00000000000026be      0x141 /home/tx/workspace/nacl_sdk/pepper_29/toolchain/linux_x86_newlib/bin/../lib/gcc/x86_64-nacl/4.4.3/32/libgcc.a(_umoddi3.o)
 .debug_abbrev  0x00000000000027ff       0x12 /home/tx/workspace/nacl_sdk/pepper_29/toolchain/linux_x86_newlib/bin/../lib/gcc/x86_64-nacl/4.4.3/../../../../x86_64-nacl/lib/../lib32/crtn.o

.debug_line     0x0000000000000000     0x5a58
 *(.debug_line)
 .debug_line    0x0000000000000000       0x62 /home/tx/workspace/nacl_sdk/pepper_29/toolchain/linux_x86_newlib/bin/../lib/gcc/x86_64-nacl/4.4.3/../../../../x86_64-nacl/lib/../lib32/crti.o
 .debug_line    0x0000000000000062      0x237 newlib/Debug/tmp_x86_32.o
 .debug_line    0x0000000000000299       0x44 /home/tx/workspace/nacl_sdk/pepper_29/toolchain/linux_x86_newlib/bin/../lib/gcc/x86_64-nacl/4.4.3/../../../../x86_64-nacl/lib/../lib32/libppapi_stub.a(plugin_main_irt.o)
 .debug_line    0x00000000000002dd      0x16d /home/tx/workspace/nacl_sdk/pepper_29/toolchain/linux_x86_newlib/bin/../lib/gcc/x86_64-nacl/4.4.3/../../../../x86_64-nacl/lib/../lib32/libppapi_stub.a(ppapi_plugin_main.o)
 .debug_line    0x000000000000044a      0x330 /home/tx/workspace/nacl_sdk/pepper_29/toolchain/linux_x86_newlib/bin/../lib/gcc/x86_64-nacl/4.4.3/../../../../x86_64-nacl/lib/../lib32/libppapi_stub.a(ppapi_plugin_start.o)
 .debug_line    0x000000000000077a      0x182 /home/tx/workspace/nacl_sdk/pepper_29/toolchain/linux_x86_newlib/bin/../lib/gcc/x86_64-nacl/4.4.3/../../../../x86_64-nacl/lib/../lib32/libppapi_stub.a(thread_creator.o)
 .debug_line    0x00000000000008fc      0x6f2 /home/tx/workspace/nacl_sdk/pepper_29/toolchain/linux_x86_newlib/bin/../lib/gcc/x86_64-nacl/4.4.3/../../../../x86_64-nacl/lib/../lib32/libpthread.a(nc_thread.o)
 .debug_line    0x0000000000000fee      0x213 /home/tx/workspace/nacl_sdk/pepper_29/toolchain/linux_x86_newlib/bin/../lib/gcc/x86_64-nacl/4.4.3/../../../../x86_64-nacl/lib/../lib32/libpthread.a(nc_mutex.o)
 .debug_line    0x0000000000001201      0x240 /home/tx/workspace/nacl_sdk/pepper_29/toolchain/linux_x86_newlib/bin/../lib/gcc/x86_64-nacl/4.4.3/../../../../x86_64-nacl/lib/../lib32/libpthread.a(nc_condvar.o)
 .debug_line    0x0000000000001441      0x1f7 /home/tx/workspace/nacl_sdk/pepper_29/toolchain/linux_x86_newlib/bin/../lib/gcc/x86_64-nacl/4.4.3/../../../../x86_64-nacl/lib/../lib32/libpthread.a(nc_init_irt.o)
 .debug_line    0x0000000000001638       0xd3 /home/tx/workspace/nacl_sdk/pepper_29/toolchain/linux_x86_newlib/bin/../lib/gcc/x86_64-nacl/4.4.3/../../../../x86_64-nacl/lib/../lib32/libpthread.a(dynamic_annotations.o)
 .debug_line    0x000000000000170b      0x2e8 /home/tx/workspace/nacl_sdk/pepper_29/toolchain/linux_x86_newlib/bin/../lib/gcc/x86_64-nacl/4.4.3/../../../../x86_64-nacl/lib/../lib32/libpthread.a(futex.o)
 .debug_line    0x00000000000019f3      0x3fa /home/tx/workspace/nacl_sdk/pepper_29/toolchain/linux_x86_newlib/bin/../lib/gcc/x86_64-nacl/4.4.3/../../../../x86_64-nacl/lib/../lib32/libnacl.a(nacl_irt.o)
 .debug_line    0x0000000000001ded      0x39a /home/tx/workspace/nacl_sdk/pepper_29/toolchain/linux_x86_newlib/bin/../lib/gcc/x86_64-nacl/4.4.3/../../../../x86_64-nacl/lib/../lib32/libnacl.a(close.o)
 .debug_line    0x0000000000002187      0x2f9 /home/tx/workspace/nacl_sdk/pepper_29/toolchain/linux_x86_newlib/bin/../lib/gcc/x86_64-nacl/4.4.3/../../../../x86_64-nacl/lib/../lib32/libnacl.a(_exit.o)
 .debug_line    0x0000000000002480      0x398 /home/tx/workspace/nacl_sdk/pepper_29/toolchain/linux_x86_newlib/bin/../lib/gcc/x86_64-nacl/4.4.3/../../../../x86_64-nacl/lib/../lib32/libnacl.a(fstat.o)
 .debug_line    0x0000000000002818      0x39c /home/tx/workspace/nacl_sdk/pepper_29/toolchain/linux_x86_newlib/bin/../lib/gcc/x86_64-nacl/4.4.3/../../../../x86_64-nacl/lib/../lib32/libnacl.a(lseek.o)
 .debug_line    0x0000000000002bb4      0xd16 /home/tx/workspace/nacl_sdk/pepper_29/toolchain/linux_x86_newlib/bin/../lib/gcc/x86_64-nacl/4.4.3/../../../../x86_64-nacl/lib/../lib32/libnacl.a(malloc.o)
 .debug_line    0x00000000000038ca      0x39a /home/tx/workspace/nacl_sdk/pepper_29/toolchain/linux_x86_newlib/bin/../lib/gcc/x86_64-nacl/4.4.3/../../../../x86_64-nacl/lib/../lib32/libnacl.a(mmap.o)
 .debug_line    0x0000000000003c64      0x399 /home/tx/workspace/nacl_sdk/pepper_29/toolchain/linux_x86_newlib/bin/../lib/gcc/x86_64-nacl/4.4.3/../../../../x86_64-nacl/lib/../lib32/libnacl.a(munmap.o)
 .debug_line    0x0000000000003ffd       0x43 /home/tx/workspace/nacl_sdk/pepper_29/toolchain/linux_x86_newlib/bin/../lib/gcc/x86_64-nacl/4.4.3/../../../../x86_64-nacl/lib/../lib32/libnacl.a(nacl_read_tp.o)
 .debug_line    0x0000000000004040      0x39b /home/tx/workspace/nacl_sdk/pepper_29/toolchain/linux_x86_newlib/bin/../lib/gcc/x86_64-nacl/4.4.3/../../../../x86_64-nacl/lib/../lib32/libnacl.a(read.o)
 .debug_line    0x00000000000043db       0xf9 /home/tx/workspace/nacl_sdk/pepper_29/toolchain/linux_x86_newlib/bin/../lib/gcc/x86_64-nacl/4.4.3/../../../../x86_64-nacl/lib/../lib32/libnacl.a(pthread_initialize_minimal.o)
 .debug_line    0x00000000000044d4      0x3af /home/tx/workspace/nacl_sdk/pepper_29/toolchain/linux_x86_newlib/bin/../lib/gcc/x86_64-nacl/4.4.3/../../../../x86_64-nacl/lib/../lib32/libnacl.a(sbrk.o)
 .debug_line    0x0000000000004883      0x307 /home/tx/workspace/nacl_sdk/pepper_29/toolchain/linux_x86_newlib/bin/../lib/gcc/x86_64-nacl/4.4.3/../../../../x86_64-nacl/lib/../lib32/libnacl.a(sched_yield.o)
 .debug_line    0x0000000000004b8a      0x257 /home/tx/workspace/nacl_sdk/pepper_29/toolchain/linux_x86_newlib/bin/../lib/gcc/x86_64-nacl/4.4.3/../../../../x86_64-nacl/lib/../lib32/libnacl.a(start.o)
 .debug_line    0x0000000000004de1      0x305 /home/tx/workspace/nacl_sdk/pepper_29/toolchain/linux_x86_newlib/bin/../lib/gcc/x86_64-nacl/4.4.3/../../../../x86_64-nacl/lib/../lib32/libnacl.a(sysconf.o)
 .debug_line    0x00000000000050e6      0x2a0 /home/tx/workspace/nacl_sdk/pepper_29/toolchain/linux_x86_newlib/bin/../lib/gcc/x86_64-nacl/4.4.3/../../../../x86_64-nacl/lib/../lib32/libnacl.a(tls.o)
 .debug_line    0x0000000000005386      0x39c /home/tx/workspace/nacl_sdk/pepper_29/toolchain/linux_x86_newlib/bin/../lib/gcc/x86_64-nacl/4.4.3/../../../../x86_64-nacl/lib/../lib32/libnacl.a(write.o)
 .debug_line    0x0000000000005722       0xb2 /home/tx/workspace/nacl_sdk/pepper_29/toolchain/linux_x86_newlib/bin/../lib/gcc/x86_64-nacl/4.4.3/../../../../x86_64-nacl/lib/../lib32/libnacl.a(nacl_tls_init.o)
 .debug_line    0x00000000000057d4      0x109 /home/tx/workspace/nacl_sdk/pepper_29/toolchain/linux_x86_newlib/bin/../lib/gcc/x86_64-nacl/4.4.3/32/libgcc.a(_udivdi3.o)
 .debug_line    0x00000000000058dd      0x119 /home/tx/workspace/nacl_sdk/pepper_29/toolchain/linux_x86_newlib/bin/../lib/gcc/x86_64-nacl/4.4.3/32/libgcc.a(_umoddi3.o)
 .debug_line    0x00000000000059f6       0x62 /home/tx/workspace/nacl_sdk/pepper_29/toolchain/linux_x86_newlib/bin/../lib/gcc/x86_64-nacl/4.4.3/../../../../x86_64-nacl/lib/../lib32/crtn.o

.debug_frame    0x0000000000000000      0x16c
 *(.debug_frame)
 .debug_frame   0x0000000000000000      0x16c newlib/Debug/tmp_x86_32.o

.debug_str      0x0000000000000000     0x309e
 *(.debug_str)
 .debug_str     0x0000000000000000      0x848 newlib/Debug/tmp_x86_32.o
                                        0x8dd (size before relaxing)
 .debug_str     0x0000000000000848       0x77 /home/tx/workspace/nacl_sdk/pepper_29/toolchain/linux_x86_newlib/bin/../lib/gcc/x86_64-nacl/4.4.3/../../../../x86_64-nacl/lib/../lib32/libppapi_stub.a(plugin_main_irt.o)
                                        0x161 (size before relaxing)
 .debug_str     0x00000000000008bf       0x50 /home/tx/workspace/nacl_sdk/pepper_29/toolchain/linux_x86_newlib/bin/../lib/gcc/x86_64-nacl/4.4.3/../../../../x86_64-nacl/lib/../lib32/libppapi_stub.a(ppapi_plugin_main.o)
                                        0x1e4 (size before relaxing)
 .debug_str     0x000000000000090f       0xf1 /home/tx/workspace/nacl_sdk/pepper_29/toolchain/linux_x86_newlib/bin/../lib/gcc/x86_64-nacl/4.4.3/../../../../x86_64-nacl/lib/../lib32/libppapi_stub.a(ppapi_plugin_start.o)
                                        0x2ec (size before relaxing)
 .debug_str     0x0000000000000a00       0x64 /home/tx/workspace/nacl_sdk/pepper_29/toolchain/linux_x86_newlib/bin/../lib/gcc/x86_64-nacl/4.4.3/../../../../x86_64-nacl/lib/../lib32/libppapi_stub.a(thread_creator.o)
                                        0x29b (size before relaxing)
 .debug_str     0x0000000000000a64      0x953 /home/tx/workspace/nacl_sdk/pepper_29/toolchain/linux_x86_newlib/bin/../lib/gcc/x86_64-nacl/4.4.3/../../../../x86_64-nacl/lib/../lib32/libpthread.a(nc_thread.o)
                                        0xb39 (size before relaxing)
 .debug_str     0x00000000000013b7      0x19a /home/tx/workspace/nacl_sdk/pepper_29/toolchain/linux_x86_newlib/bin/../lib/gcc/x86_64-nacl/4.4.3/../../../../x86_64-nacl/lib/../lib32/libpthread.a(nc_mutex.o)
                                        0x596 (size before relaxing)
 .debug_str     0x0000000000001551       0xfb /home/tx/workspace/nacl_sdk/pepper_29/toolchain/linux_x86_newlib/bin/../lib/gcc/x86_64-nacl/4.4.3/../../../../x86_64-nacl/lib/../lib32/libpthread.a(nc_condvar.o)
                                        0x426 (size before relaxing)
 .debug_str     0x000000000000164c       0xd3 /home/tx/workspace/nacl_sdk/pepper_29/toolchain/linux_x86_newlib/bin/../lib/gcc/x86_64-nacl/4.4.3/../../../../x86_64-nacl/lib/../lib32/libpthread.a(nc_init_irt.o)
                                        0x2f5 (size before relaxing)
 .debug_str     0x000000000000171f      0x499 /home/tx/workspace/nacl_sdk/pepper_29/toolchain/linux_x86_newlib/bin/../lib/gcc/x86_64-nacl/4.4.3/../../../../x86_64-nacl/lib/../lib32/libpthread.a(dynamic_annotations.o)
                                        0x61c (size before relaxing)
 .debug_str     0x0000000000001bb8      0x108 /home/tx/workspace/nacl_sdk/pepper_29/toolchain/linux_x86_newlib/bin/../lib/gcc/x86_64-nacl/4.4.3/../../../../x86_64-nacl/lib/../lib32/libpthread.a(futex.o)
                                        0x398 (size before relaxing)
 .debug_str     0x0000000000001cc0      0x2e1 /home/tx/workspace/nacl_sdk/pepper_29/toolchain/linux_x86_newlib/bin/../lib/gcc/x86_64-nacl/4.4.3/../../../../x86_64-nacl/lib/../lib32/libnacl.a(nacl_irt.o)
                                        0x547 (size before relaxing)
 .debug_str     0x0000000000001fa1        0x8 /home/tx/workspace/nacl_sdk/pepper_29/toolchain/linux_x86_newlib/bin/../lib/gcc/x86_64-nacl/4.4.3/../../../../x86_64-nacl/lib/../lib32/libnacl.a(close.o)
                                        0x1c6 (size before relaxing)
 .debug_str     0x0000000000001fa9        0x8 /home/tx/workspace/nacl_sdk/pepper_29/toolchain/linux_x86_newlib/bin/../lib/gcc/x86_64-nacl/4.4.3/../../../../x86_64-nacl/lib/../lib32/libnacl.a(_exit.o)
                                        0x1f0 (size before relaxing)
 .debug_str     0x0000000000001fb1       0xe6 /home/tx/workspace/nacl_sdk/pepper_29/toolchain/linux_x86_newlib/bin/../lib/gcc/x86_64-nacl/4.4.3/../../../../x86_64-nacl/lib/../lib32/libnacl.a(fstat.o)
                                        0x2fa (size before relaxing)
 .debug_str     0x0000000000002097       0x15 /home/tx/workspace/nacl_sdk/pepper_29/toolchain/linux_x86_newlib/bin/../lib/gcc/x86_64-nacl/4.4.3/../../../../x86_64-nacl/lib/../lib32/libnacl.a(lseek.o)
                                        0x1e1 (size before relaxing)
 .debug_str     0x00000000000020ac      0xa02 /home/tx/workspace/nacl_sdk/pepper_29/toolchain/linux_x86_newlib/bin/../lib/gcc/x86_64-nacl/4.4.3/../../../../x86_64-nacl/lib/../lib32/libnacl.a(malloc.o)
                                        0xcf1 (size before relaxing)
 .debug_str     0x0000000000002aae        0x7 /home/tx/workspace/nacl_sdk/pepper_29/toolchain/linux_x86_newlib/bin/../lib/gcc/x86_64-nacl/4.4.3/../../../../x86_64-nacl/lib/../lib32/libnacl.a(mmap.o)
                                        0x1ce (size before relaxing)
 .debug_str     0x0000000000002ab5        0x9 /home/tx/workspace/nacl_sdk/pepper_29/toolchain/linux_x86_newlib/bin/../lib/gcc/x86_64-nacl/4.4.3/../../../../x86_64-nacl/lib/../lib32/libnacl.a(munmap.o)
                                        0x1b9 (size before relaxing)
 .debug_str     0x0000000000002abe       0x1e /home/tx/workspace/nacl_sdk/pepper_29/toolchain/linux_x86_newlib/bin/../lib/gcc/x86_64-nacl/4.4.3/../../../../x86_64-nacl/lib/../lib32/libnacl.a(nacl_read_tp.o)
                                        0x165 (size before relaxing)
 .debug_str     0x0000000000002adc        0x6 /home/tx/workspace/nacl_sdk/pepper_29/toolchain/linux_x86_newlib/bin/../lib/gcc/x86_64-nacl/4.4.3/../../../../x86_64-nacl/lib/../lib32/libnacl.a(read.o)
                                        0x1d1 (size before relaxing)
 .debug_str     0x0000000000002ae2       0x3a /home/tx/workspace/nacl_sdk/pepper_29/toolchain/linux_x86_newlib/bin/../lib/gcc/x86_64-nacl/4.4.3/../../../../x86_64-nacl/lib/../lib32/libnacl.a(pthread_initialize_minimal.o)
                                        0x1a6 (size before relaxing)
 .debug_str     0x0000000000002b1c       0x2c /home/tx/workspace/nacl_sdk/pepper_29/toolchain/linux_x86_newlib/bin/../lib/gcc/x86_64-nacl/4.4.3/../../../../x86_64-nacl/lib/../lib32/libnacl.a(sbrk.o)
                                        0x1dd (size before relaxing)
 .debug_str     0x0000000000002b48        0xe /home/tx/workspace/nacl_sdk/pepper_29/toolchain/linux_x86_newlib/bin/../lib/gcc/x86_64-nacl/4.4.3/../../../../x86_64-nacl/lib/../lib32/libnacl.a(sched_yield.o)
                                        0x1ef (size before relaxing)
 .debug_str     0x0000000000002b56       0xf0 /home/tx/workspace/nacl_sdk/pepper_29/toolchain/linux_x86_newlib/bin/../lib/gcc/x86_64-nacl/4.4.3/../../../../x86_64-nacl/lib/../lib32/libnacl.a(start.o)
                                        0x298 (size before relaxing)
 .debug_str     0x0000000000002c46        0xa /home/tx/workspace/nacl_sdk/pepper_29/toolchain/linux_x86_newlib/bin/../lib/gcc/x86_64-nacl/4.4.3/../../../../x86_64-nacl/lib/../lib32/libnacl.a(sysconf.o)
                                        0x1f6 (size before relaxing)
 .debug_str     0x0000000000002c50      0x2d0 /home/tx/workspace/nacl_sdk/pepper_29/toolchain/linux_x86_newlib/bin/../lib/gcc/x86_64-nacl/4.4.3/../../../../x86_64-nacl/lib/../lib32/libnacl.a(tls.o)
                                        0x49b (size before relaxing)
 .debug_str     0x0000000000002f20        0xf /home/tx/workspace/nacl_sdk/pepper_29/toolchain/linux_x86_newlib/bin/../lib/gcc/x86_64-nacl/4.4.3/../../../../x86_64-nacl/lib/../lib32/libnacl.a(write.o)
                                        0x1d3 (size before relaxing)
 .debug_str     0x0000000000002f2f       0x29 /home/tx/workspace/nacl_sdk/pepper_29/toolchain/linux_x86_newlib/bin/../lib/gcc/x86_64-nacl/4.4.3/../../../../x86_64-nacl/lib/../lib32/libnacl.a(nacl_tls_init.o)
                                        0x199 (size before relaxing)
 .debug_str     0x0000000000002f58      0x13c /home/tx/workspace/nacl_sdk/pepper_29/toolchain/linux_x86_newlib/bin/../lib/gcc/x86_64-nacl/4.4.3/32/libgcc.a(_udivdi3.o)
                                        0x22f (size before relaxing)
 .debug_str     0x0000000000003094        0xa /home/tx/workspace/nacl_sdk/pepper_29/toolchain/linux_x86_newlib/bin/../lib/gcc/x86_64-nacl/4.4.3/32/libgcc.a(_umoddi3.o)
                                        0x22f (size before relaxing)

.debug_loc      0x0000000000000000     0x750c
 *(.debug_loc)
 .debug_loc     0x0000000000000000      0x268 newlib/Debug/tmp_x86_32.o
 .debug_loc     0x0000000000000268       0x2c /home/tx/workspace/nacl_sdk/pepper_29/toolchain/linux_x86_newlib/bin/../lib/gcc/x86_64-nacl/4.4.3/../../../../x86_64-nacl/lib/../lib32/libppapi_stub.a(plugin_main_irt.o)
 .debug_loc     0x0000000000000294       0x20 /home/tx/workspace/nacl_sdk/pepper_29/toolchain/linux_x86_newlib/bin/../lib/gcc/x86_64-nacl/4.4.3/../../../../x86_64-nacl/lib/../lib32/libppapi_stub.a(ppapi_plugin_main.o)
 .debug_loc     0x00000000000002b4       0xd0 /home/tx/workspace/nacl_sdk/pepper_29/toolchain/linux_x86_newlib/bin/../lib/gcc/x86_64-nacl/4.4.3/../../../../x86_64-nacl/lib/../lib32/libppapi_stub.a(ppapi_plugin_start.o)
 .debug_loc     0x0000000000000384       0x60 /home/tx/workspace/nacl_sdk/pepper_29/toolchain/linux_x86_newlib/bin/../lib/gcc/x86_64-nacl/4.4.3/../../../../x86_64-nacl/lib/../lib32/libppapi_stub.a(thread_creator.o)
 .debug_loc     0x00000000000003e4      0xbb2 /home/tx/workspace/nacl_sdk/pepper_29/toolchain/linux_x86_newlib/bin/../lib/gcc/x86_64-nacl/4.4.3/../../../../x86_64-nacl/lib/../lib32/libpthread.a(nc_thread.o)
 .debug_loc     0x0000000000000f96      0x2a3 /home/tx/workspace/nacl_sdk/pepper_29/toolchain/linux_x86_newlib/bin/../lib/gcc/x86_64-nacl/4.4.3/../../../../x86_64-nacl/lib/../lib32/libpthread.a(nc_mutex.o)
 .debug_loc     0x0000000000001239      0x18c /home/tx/workspace/nacl_sdk/pepper_29/toolchain/linux_x86_newlib/bin/../lib/gcc/x86_64-nacl/4.4.3/../../../../x86_64-nacl/lib/../lib32/libpthread.a(nc_condvar.o)
 .debug_loc     0x00000000000013c5       0x20 /home/tx/workspace/nacl_sdk/pepper_29/toolchain/linux_x86_newlib/bin/../lib/gcc/x86_64-nacl/4.4.3/../../../../x86_64-nacl/lib/../lib32/libpthread.a(nc_init_irt.o)
 .debug_loc     0x00000000000013e5       0x72 /home/tx/workspace/nacl_sdk/pepper_29/toolchain/linux_x86_newlib/bin/../lib/gcc/x86_64-nacl/4.4.3/../../../../x86_64-nacl/lib/../lib32/libpthread.a(dynamic_annotations.o)
 .debug_loc     0x0000000000001457      0x329 /home/tx/workspace/nacl_sdk/pepper_29/toolchain/linux_x86_newlib/bin/../lib/gcc/x86_64-nacl/4.4.3/../../../../x86_64-nacl/lib/../lib32/libpthread.a(futex.o)
 .debug_loc     0x0000000000001780      0x147 /home/tx/workspace/nacl_sdk/pepper_29/toolchain/linux_x86_newlib/bin/../lib/gcc/x86_64-nacl/4.4.3/../../../../x86_64-nacl/lib/../lib32/libnacl.a(nacl_irt.o)
 .debug_loc     0x00000000000018c7       0x4a /home/tx/workspace/nacl_sdk/pepper_29/toolchain/linux_x86_newlib/bin/../lib/gcc/x86_64-nacl/4.4.3/../../../../x86_64-nacl/lib/../lib32/libnacl.a(close.o)
 .debug_loc     0x0000000000001911       0x20 /home/tx/workspace/nacl_sdk/pepper_29/toolchain/linux_x86_newlib/bin/../lib/gcc/x86_64-nacl/4.4.3/../../../../x86_64-nacl/lib/../lib32/libnacl.a(_exit.o)
 .debug_loc     0x0000000000001931       0x4a /home/tx/workspace/nacl_sdk/pepper_29/toolchain/linux_x86_newlib/bin/../lib/gcc/x86_64-nacl/4.4.3/../../../../x86_64-nacl/lib/../lib32/libnacl.a(fstat.o)
 .debug_loc     0x000000000000197b       0x5f /home/tx/workspace/nacl_sdk/pepper_29/toolchain/linux_x86_newlib/bin/../lib/gcc/x86_64-nacl/4.4.3/../../../../x86_64-nacl/lib/../lib32/libnacl.a(lseek.o)
 .debug_loc     0x00000000000019da     0x516f /home/tx/workspace/nacl_sdk/pepper_29/toolchain/linux_x86_newlib/bin/../lib/gcc/x86_64-nacl/4.4.3/../../../../x86_64-nacl/lib/../lib32/libnacl.a(malloc.o)
 .debug_loc     0x0000000000006b49       0x7b /home/tx/workspace/nacl_sdk/pepper_29/toolchain/linux_x86_newlib/bin/../lib/gcc/x86_64-nacl/4.4.3/../../../../x86_64-nacl/lib/../lib32/libnacl.a(mmap.o)
 .debug_loc     0x0000000000006bc4       0x4a /home/tx/workspace/nacl_sdk/pepper_29/toolchain/linux_x86_newlib/bin/../lib/gcc/x86_64-nacl/4.4.3/../../../../x86_64-nacl/lib/../lib32/libnacl.a(munmap.o)
 .debug_loc     0x0000000000006c0e       0x13 /home/tx/workspace/nacl_sdk/pepper_29/toolchain/linux_x86_newlib/bin/../lib/gcc/x86_64-nacl/4.4.3/../../../../x86_64-nacl/lib/../lib32/libnacl.a(nacl_read_tp.o)
 .debug_loc     0x0000000000006c21       0x5e /home/tx/workspace/nacl_sdk/pepper_29/toolchain/linux_x86_newlib/bin/../lib/gcc/x86_64-nacl/4.4.3/../../../../x86_64-nacl/lib/../lib32/libnacl.a(read.o)
 .debug_loc     0x0000000000006c7f       0x52 /home/tx/workspace/nacl_sdk/pepper_29/toolchain/linux_x86_newlib/bin/../lib/gcc/x86_64-nacl/4.4.3/../../../../x86_64-nacl/lib/../lib32/libnacl.a(pthread_initialize_minimal.o)
 .debug_loc     0x0000000000006cd1       0xca /home/tx/workspace/nacl_sdk/pepper_29/toolchain/linux_x86_newlib/bin/../lib/gcc/x86_64-nacl/4.4.3/../../../../x86_64-nacl/lib/../lib32/libnacl.a(sbrk.o)
 .debug_loc     0x0000000000006d9b       0x4a /home/tx/workspace/nacl_sdk/pepper_29/toolchain/linux_x86_newlib/bin/../lib/gcc/x86_64-nacl/4.4.3/../../../../x86_64-nacl/lib/../lib32/libnacl.a(sched_yield.o)
 .debug_loc     0x0000000000006de5       0x33 /home/tx/workspace/nacl_sdk/pepper_29/toolchain/linux_x86_newlib/bin/../lib/gcc/x86_64-nacl/4.4.3/../../../../x86_64-nacl/lib/../lib32/libnacl.a(start.o)
 .debug_loc     0x0000000000006e18       0x5e /home/tx/workspace/nacl_sdk/pepper_29/toolchain/linux_x86_newlib/bin/../lib/gcc/x86_64-nacl/4.4.3/../../../../x86_64-nacl/lib/../lib32/libnacl.a(sysconf.o)
 .debug_loc     0x0000000000006e76      0x13b /home/tx/workspace/nacl_sdk/pepper_29/toolchain/linux_x86_newlib/bin/../lib/gcc/x86_64-nacl/4.4.3/../../../../x86_64-nacl/lib/../lib32/libnacl.a(tls.o)
 .debug_loc     0x0000000000006fb1       0x5e /home/tx/workspace/nacl_sdk/pepper_29/toolchain/linux_x86_newlib/bin/../lib/gcc/x86_64-nacl/4.4.3/../../../../x86_64-nacl/lib/../lib32/libnacl.a(write.o)
 .debug_loc     0x000000000000700f       0x20 /home/tx/workspace/nacl_sdk/pepper_29/toolchain/linux_x86_newlib/bin/../lib/gcc/x86_64-nacl/4.4.3/../../../../x86_64-nacl/lib/../lib32/libnacl.a(nacl_tls_init.o)
 .debug_loc     0x000000000000702f      0x23e /home/tx/workspace/nacl_sdk/pepper_29/toolchain/linux_x86_newlib/bin/../lib/gcc/x86_64-nacl/4.4.3/32/libgcc.a(_udivdi3.o)
 .debug_loc     0x000000000000726d      0x29f /home/tx/workspace/nacl_sdk/pepper_29/toolchain/linux_x86_newlib/bin/../lib/gcc/x86_64-nacl/4.4.3/32/libgcc.a(_umoddi3.o)

.debug_macinfo
 *(.debug_macinfo)

.debug_weaknames
 *(.debug_weaknames)

.debug_funcnames
 *(.debug_funcnames)

.debug_typenames
 *(.debug_typenames)

.debug_varnames
 *(.debug_varnames)

.debug_pubtypes
 *(.debug_pubtypes)

.debug_ranges   0x0000000000000000     0x1ca0
 *(.debug_ranges)
 .debug_ranges  0x0000000000000000       0x20 /home/tx/workspace/nacl_sdk/pepper_29/toolchain/linux_x86_newlib/bin/../lib/gcc/x86_64-nacl/4.4.3/../../../../x86_64-nacl/lib/../lib32/crti.o
 .debug_ranges  0x0000000000000020      0x218 /home/tx/workspace/nacl_sdk/pepper_29/toolchain/linux_x86_newlib/bin/../lib/gcc/x86_64-nacl/4.4.3/../../../../x86_64-nacl/lib/../lib32/libpthread.a(nc_thread.o)
 .debug_ranges  0x0000000000000238       0x20 /home/tx/workspace/nacl_sdk/pepper_29/toolchain/linux_x86_newlib/bin/../lib/gcc/x86_64-nacl/4.4.3/../../../../x86_64-nacl/lib/../lib32/libpthread.a(nc_mutex.o)
 .debug_ranges  0x0000000000000258       0x68 /home/tx/workspace/nacl_sdk/pepper_29/toolchain/linux_x86_newlib/bin/../lib/gcc/x86_64-nacl/4.4.3/../../../../x86_64-nacl/lib/../lib32/libpthread.a(futex.o)
 .debug_ranges  0x00000000000002c0     0x17c0 /home/tx/workspace/nacl_sdk/pepper_29/toolchain/linux_x86_newlib/bin/../lib/gcc/x86_64-nacl/4.4.3/../../../../x86_64-nacl/lib/../lib32/libnacl.a(malloc.o)
 .debug_ranges  0x0000000000001a80       0x30 /home/tx/workspace/nacl_sdk/pepper_29/toolchain/linux_x86_newlib/bin/../lib/gcc/x86_64-nacl/4.4.3/../../../../x86_64-nacl/lib/../lib32/libnacl.a(start.o)
 .debug_ranges  0x0000000000001ab0       0xd8 /home/tx/workspace/nacl_sdk/pepper_29/toolchain/linux_x86_newlib/bin/../lib/gcc/x86_64-nacl/4.4.3/../../../../x86_64-nacl/lib/../lib32/libnacl.a(tls.o)
 .debug_ranges  0x0000000000001b88       0x70 /home/tx/workspace/nacl_sdk/pepper_29/toolchain/linux_x86_newlib/bin/../lib/gcc/x86_64-nacl/4.4.3/32/libgcc.a(_udivdi3.o)
 .debug_ranges  0x0000000000001bf8       0x88 /home/tx/workspace/nacl_sdk/pepper_29/toolchain/linux_x86_newlib/bin/../lib/gcc/x86_64-nacl/4.4.3/32/libgcc.a(_umoddi3.o)
 .debug_ranges  0x0000000000001c80       0x20 /home/tx/workspace/nacl_sdk/pepper_29/toolchain/linux_x86_newlib/bin/../lib/gcc/x86_64-nacl/4.4.3/../../../../x86_64-nacl/lib/../lib32/crtn.o

.gnu.attributes
 *(.gnu.attributes)

/DISCARD/
 *(.note.GNU-stack)
 *(.gnu_debuglink)
OUTPUT(newlib/Debug/tmp_x86_32.nexe elf32-nacl)
